(dp1
S'x'
(i__main__
Pystepseq
p2
(dp3
S'note_depth'
p4
I5
sS'scl'
p5
(iscales
MidiScale
p6
(dp7
S'slave'
p8
(lp9
I39
aI40
aI41
aI42
aI43
aI44
aI45
aI46
aI47
aI48
aI49
aI50
aI51
asS'min'
p10
I39
sS'max'
p11
I60
sS'transposition'
p12
I0
sS'master_scale'
p13
(lp14
I36
aI37
aI38
aI39
aI40
aI41
aI42
aI43
aI44
aI45
aI46
aI47
aI48
aI49
aI50
aI51
asS'size'
p15
I13
sbsS'note_autocounter'
p16
I0
sS'vol'
p17
I25
sS'note_length'
p18
I12
sS'MYPORT'
p19
I8123
sS'beats'
p20
I32
sS'sounding'
p21
I0
sS'note_list'
p22
(lp23
I5
aI0
aI5
aI0
aI4
aI6
aI3
aI0
aI0
aI3
aI2
aI6
aI0
aI2
aI5
aI1
aI5
aI6
aI1
aI0
aI6
aI4
aI3
aI1
aI3
aI1
aI1
aI3
aI5
aI4
aI3
aI0
asS'len_list'
p24
(lp25
I6
aI12
aI18
aI6
aI12
aI12
aI6
aI12
aI6
aI12
aI6
aI6
aI6
aI12
aI6
aI12
aI12
aI6
aI12
aI6
aI6
asS'current_slot'
p26
I3
sS'end'
p27
I21
sS'runstate'
p28
I1
sS'chn'
p29
I9
sS'note'
p30
I40
sS'old_slot'
p31
I3
sS'note_noise'
p32
S'white'
p33
sS'pickle_slots'
p34
(lp35
(dp36
S'vol_list'
p37
S'(lp1\nI70\naI67\naI68\naI64\naI81\naI53\naI61\naI81\naI50\naI65\naI81\naI78\naI84\naI52\naI51\naI79\naI68\naI78\na.'
p38
sg5
S"(iscales\nMidiScale\np1\n(dp2\nS'slave'\np3\n(lp4\nI48\naI50\naI52\naI53\naI55\naI57\naI59\naI60\naI62\naI64\naI65\naI67\naI69\naI71\naI72\nasS'min'\np5\nI48\nsS'max'\np6\nI72\nsS'transposition'\np7\nI0\nsS'master_scale'\np8\n(lp9\nI0\naI2\naI4\naI5\naI7\naI9\naI11\naI12\naI14\naI16\naI17\naI19\naI21\naI23\naI24\naI26\naI28\naI29\naI31\naI33\naI35\naI36\naI38\naI40\naI41\naI43\naI45\naI47\naI48\naI50\naI52\naI53\naI55\naI57\naI59\naI60\naI62\naI64\naI65\naI67\naI69\naI71\naI72\naI74\naI76\naI77\naI79\naI81\naI83\naI84\naI86\naI88\naI89\naI91\naI93\naI95\naI96\naI98\naI100\naI101\naI103\naI105\naI107\naI108\naI110\naI112\naI113\naI115\naI117\naI119\naI120\naI122\naI124\naI125\naI127\naI129\naI131\naI132\nasS'size'\np10\nI15\nsb."
p39
sg27
S'I18\n.'
p40
sg29
S'I9\n.'
p41
sg22
S'(lp1\nI8\naI11\naI12\naI4\naI12\naI7\naI10\naI2\naI10\naI6\naI9\naI4\naI5\naI10\naI11\naI10\naI10\naI4\na.'
p42
sg24
S'(lp1\nI6\naI6\naI12\naI6\naI18\naI12\naI6\naI6\naI12\naI18\naI24\naI6\naI6\naI24\naI6\naI6\naI6\naI12\na.'
p43
sa(dp44
g37
S'(lp1\nI25\naI50\naI40\naI70\naI60\naI40\naI50\naI30\naI60\naI80\naI50\naI40\naI80\naI40\naI60\naI40\naI80\naI80\naI25\naI50\naI40\naI30\naI40\naI40\naI80\naI80\naI40\naI50\naI60\naI25\naI25\naI80\na.'
p45
sg5
S"(iscales\nMidiScale\np1\n(dp2\nS'slave'\np3\n(lp4\nI39\naI40\naI41\naI42\naI43\naI44\naI45\naI46\naI47\naI48\naI49\naI50\naI51\nasS'min'\np5\nI39\nsS'max'\np6\nI60\nsS'transposition'\np7\nI0\nsS'master_scale'\np8\n(lp9\nI36\naI37\naI38\naI39\naI40\naI41\naI42\naI43\naI44\naI45\naI46\naI47\naI48\naI49\naI50\naI51\nasS'size'\np10\nI13\nsb."
p46
sg27
S'I19\n.'
p47
sg29
S'I9\n.'
p48
sg22
S'(lp1\nI0\naI1\naI2\naI4\naI6\naI6\naI1\naI0\naI0\naI1\naI2\naI1\naI3\naI0\naI5\naI3\naI0\naI2\naI4\naI1\naI2\naI6\naI0\naI3\naI1\naI0\naI4\naI5\naI2\naI6\naI3\naI2\na.'
p49
sg24
S'(lp1\nI18\naI18\naI18\naI6\naI18\naI6\naI12\naI6\naI6\naI18\naI6\naI6\naI6\naI6\naI6\naI12\naI12\naI6\naI6\na.'
p50
sa(dp51
g37
S'(lp1\nI40\naI50\naI60\naI30\naI30\naI70\naI30\naI70\naI60\naI50\naI40\naI50\naI60\naI40\naI70\naI40\naI50\naI60\naI70\naI40\naI50\naI50\naI80\naI60\naI30\naI60\naI50\naI40\naI40\naI60\naI50\naI25\na.'
p52
sg5
S"(iscales\nMidiScale\np1\n(dp2\nS'slave'\np3\n(lp4\nI39\naI40\naI41\naI42\naI43\naI44\naI45\naI46\naI47\naI48\naI49\naI50\naI51\nasS'min'\np5\nI39\nsS'max'\np6\nI60\nsS'transposition'\np7\nI0\nsS'master_scale'\np8\n(lp9\nI36\naI37\naI38\naI39\naI40\naI41\naI42\naI43\naI44\naI45\naI46\naI47\naI48\naI49\naI50\naI51\nasS'size'\np10\nI13\nsb."
p53
sg27
S'I20\n.'
p54
sg29
S'I9\n.'
p55
sg22
S'(lp1\nI0\naI4\naI1\naI5\naI0\naI1\naI0\naI3\naI2\naI2\naI2\naI0\naI1\naI0\naI2\naI1\naI2\naI0\naI3\naI3\naI0\naI2\naI0\naI4\naI4\naI2\naI0\naI5\naI5\naI0\naI0\naI1\na.'
p56
sg24
S'(lp1\nI12\naI6\naI18\naI6\naI12\naI12\naI6\naI18\naI6\naI12\naI6\naI6\naI18\naI6\naI12\naI6\naI12\naI6\naI6\naI6\na.'
p57
sa(dp58
g37
S'(lp1\nI50\naI30\naI70\naI25\naI40\naI70\naI25\naI40\naI70\naI25\naI60\naI40\naI50\naI70\naI60\naI25\naI40\naI40\naI30\naI60\naI30\naI60\naI25\naI70\naI60\naI25\naI60\naI25\naI40\naI30\naI60\naI50\na.'
p59
sg5
S"(iscales\nMidiScale\np1\n(dp2\nS'slave'\np3\n(lp4\nI39\naI40\naI41\naI42\naI43\naI44\naI45\naI46\naI47\naI48\naI49\naI50\naI51\nasS'min'\np5\nI39\nsS'max'\np6\nI60\nsS'transposition'\np7\nI0\nsS'master_scale'\np8\n(lp9\nI36\naI37\naI38\naI39\naI40\naI41\naI42\naI43\naI44\naI45\naI46\naI47\naI48\naI49\naI50\naI51\nasS'size'\np10\nI13\nsb."
p60
sg27
S'I21\n.'
p61
sg29
S'I9\n.'
p62
sg22
S'(lp1\nI5\naI0\naI5\naI0\naI4\naI6\naI3\naI0\naI0\naI3\naI2\naI6\naI0\naI2\naI5\naI1\naI5\naI6\naI1\naI0\naI6\naI4\naI3\naI1\naI3\naI1\naI1\naI3\naI5\naI4\naI3\naI0\na.'
p63
sg24
S'(lp1\nI6\naI12\naI18\naI6\naI12\naI12\naI6\naI12\naI6\naI12\naI6\naI6\naI6\naI12\naI6\naI12\naI12\naI6\naI12\naI6\naI6\na.'
p64
sa(dp65
g37
S'(lp1\nI50\naI40\naI30\naI60\naI50\naI30\naI50\naI70\naI80\naI40\naI40\naI80\naI50\naI70\naI80\naI50\naI50\naI25\naI60\naI40\naI50\naI40\naI30\naI70\naI50\naI30\naI30\naI30\naI50\naI30\naI70\naI80\na.'
p66
sg5
S"(iscales\nMidiScale\np1\n(dp2\nS'slave'\np3\n(lp4\nI39\naI40\naI41\naI42\naI43\naI44\naI45\naI46\naI47\naI48\naI49\naI50\naI51\nasS'min'\np5\nI39\nsS'max'\np6\nI60\nsS'transposition'\np7\nI0\nsS'master_scale'\np8\n(lp9\nI36\naI37\naI38\naI39\naI40\naI41\naI42\naI43\naI44\naI45\naI46\naI47\naI48\naI49\naI50\naI51\nasS'size'\np10\nI13\nsb."
p67
sg27
S'I19\n.'
p68
sg29
S'I9\n.'
p69
sg22
S'(lp1\nI3\naI0\naI0\naI4\naI5\naI0\naI4\naI3\naI5\naI2\naI1\naI4\naI3\naI3\naI1\naI2\naI6\naI3\naI0\naI6\naI0\naI0\naI2\naI0\naI1\naI3\naI5\naI2\naI0\naI0\naI5\naI3\na.'
p70
sg24
S'(lp1\nI6\naI24\naI18\naI6\naI6\naI12\naI6\naI6\naI6\naI6\naI6\naI18\naI6\naI6\naI12\naI18\naI6\naI18\naI6\na.'
p71
sa(dp72
g37
S'(lp1\nI70\naI67\naI68\naI64\naI81\naI53\naI61\naI81\naI50\naI65\naI81\naI78\naI84\naI52\naI51\naI79\naI68\naI78\na.'
p73
sg5
S"(iscales\nMidiScale\np1\n(dp2\nS'slave'\np3\n(lp4\nI48\naI50\naI52\naI53\naI55\naI57\naI59\naI60\naI62\naI64\naI65\naI67\naI69\naI71\naI72\nasS'min'\np5\nI48\nsS'max'\np6\nI72\nsS'transposition'\np7\nI0\nsS'master_scale'\np8\n(lp9\nI0\naI2\naI4\naI5\naI7\naI9\naI11\naI12\naI14\naI16\naI17\naI19\naI21\naI23\naI24\naI26\naI28\naI29\naI31\naI33\naI35\naI36\naI38\naI40\naI41\naI43\naI45\naI47\naI48\naI50\naI52\naI53\naI55\naI57\naI59\naI60\naI62\naI64\naI65\naI67\naI69\naI71\naI72\naI74\naI76\naI77\naI79\naI81\naI83\naI84\naI86\naI88\naI89\naI91\naI93\naI95\naI96\naI98\naI100\naI101\naI103\naI105\naI107\naI108\naI110\naI112\naI113\naI115\naI117\naI119\naI120\naI122\naI124\naI125\naI127\naI129\naI131\naI132\nasS'size'\np10\nI15\nsb."
p74
sg27
S'I18\n.'
p75
sg29
S'I9\n.'
p76
sg22
S'(lp1\nI8\naI11\naI12\naI4\naI12\naI7\naI10\naI2\naI10\naI6\naI9\naI4\naI5\naI10\naI11\naI10\naI10\naI4\na.'
p77
sg24
S'(lp1\nI6\naI6\naI12\naI6\naI18\naI12\naI6\naI6\naI12\naI18\naI24\naI6\naI6\naI24\naI6\naI6\naI6\naI12\na.'
p78
sa(dp79
g37
S'(lp1\nI70\naI67\naI68\naI64\naI81\naI53\naI61\naI81\naI50\naI65\naI81\naI78\naI84\naI52\naI51\naI79\naI68\naI78\na.'
p80
sg5
S"(iscales\nMidiScale\np1\n(dp2\nS'slave'\np3\n(lp4\nI48\naI50\naI52\naI53\naI55\naI57\naI59\naI60\naI62\naI64\naI65\naI67\naI69\naI71\naI72\nasS'min'\np5\nI48\nsS'max'\np6\nI72\nsS'transposition'\np7\nI0\nsS'master_scale'\np8\n(lp9\nI0\naI2\naI4\naI5\naI7\naI9\naI11\naI12\naI14\naI16\naI17\naI19\naI21\naI23\naI24\naI26\naI28\naI29\naI31\naI33\naI35\naI36\naI38\naI40\naI41\naI43\naI45\naI47\naI48\naI50\naI52\naI53\naI55\naI57\naI59\naI60\naI62\naI64\naI65\naI67\naI69\naI71\naI72\naI74\naI76\naI77\naI79\naI81\naI83\naI84\naI86\naI88\naI89\naI91\naI93\naI95\naI96\naI98\naI100\naI101\naI103\naI105\naI107\naI108\naI110\naI112\naI113\naI115\naI117\naI119\naI120\naI122\naI124\naI125\naI127\naI129\naI131\naI132\nasS'size'\np10\nI15\nsb."
p81
sg27
S'I18\n.'
p82
sg29
S'I9\n.'
p83
sg22
S'(lp1\nI8\naI11\naI12\naI4\naI12\naI7\naI10\naI2\naI10\naI6\naI9\naI4\naI5\naI10\naI11\naI10\naI10\naI4\na.'
p84
sg24
S'(lp1\nI6\naI6\naI12\naI6\naI18\naI12\naI6\naI6\naI12\naI18\naI24\naI6\naI6\naI24\naI6\naI6\naI6\naI12\na.'
p85
sa(dp86
g37
S'(lp1\nI70\naI67\naI68\naI64\naI81\naI53\naI61\naI81\naI50\naI65\naI81\naI78\naI84\naI52\naI51\naI79\naI68\naI78\na.'
p87
sg5
S"(iscales\nMidiScale\np1\n(dp2\nS'slave'\np3\n(lp4\nI48\naI50\naI52\naI53\naI55\naI57\naI59\naI60\naI62\naI64\naI65\naI67\naI69\naI71\naI72\nasS'min'\np5\nI48\nsS'max'\np6\nI72\nsS'transposition'\np7\nI0\nsS'master_scale'\np8\n(lp9\nI0\naI2\naI4\naI5\naI7\naI9\naI11\naI12\naI14\naI16\naI17\naI19\naI21\naI23\naI24\naI26\naI28\naI29\naI31\naI33\naI35\naI36\naI38\naI40\naI41\naI43\naI45\naI47\naI48\naI50\naI52\naI53\naI55\naI57\naI59\naI60\naI62\naI64\naI65\naI67\naI69\naI71\naI72\naI74\naI76\naI77\naI79\naI81\naI83\naI84\naI86\naI88\naI89\naI91\naI93\naI95\naI96\naI98\naI100\naI101\naI103\naI105\naI107\naI108\naI110\naI112\naI113\naI115\naI117\naI119\naI120\naI122\naI124\naI125\naI127\naI129\naI131\naI132\nasS'size'\np10\nI15\nsb."
p88
sg27
S'I18\n.'
p89
sg29
S'I9\n.'
p90
sg22
S'(lp1\nI8\naI11\naI12\naI4\naI12\naI7\naI10\naI2\naI10\naI6\naI9\naI4\naI5\naI10\naI11\naI10\naI10\naI4\na.'
p91
sg24
S'(lp1\nI6\naI6\naI12\naI6\naI18\naI12\naI6\naI6\naI12\naI18\naI24\naI6\naI6\naI24\naI6\naI6\naI6\naI12\na.'
p92
sa(dp93
g37
S'(lp1\nI70\naI67\naI68\naI64\naI81\naI53\naI61\naI81\naI50\naI65\naI81\naI78\naI84\naI52\naI51\naI79\naI68\naI78\na.'
p94
sg5
S"(iscales\nMidiScale\np1\n(dp2\nS'slave'\np3\n(lp4\nI48\naI50\naI52\naI53\naI55\naI57\naI59\naI60\naI62\naI64\naI65\naI67\naI69\naI71\naI72\nasS'min'\np5\nI48\nsS'max'\np6\nI72\nsS'transposition'\np7\nI0\nsS'master_scale'\np8\n(lp9\nI0\naI2\naI4\naI5\naI7\naI9\naI11\naI12\naI14\naI16\naI17\naI19\naI21\naI23\naI24\naI26\naI28\naI29\naI31\naI33\naI35\naI36\naI38\naI40\naI41\naI43\naI45\naI47\naI48\naI50\naI52\naI53\naI55\naI57\naI59\naI60\naI62\naI64\naI65\naI67\naI69\naI71\naI72\naI74\naI76\naI77\naI79\naI81\naI83\naI84\naI86\naI88\naI89\naI91\naI93\naI95\naI96\naI98\naI100\naI101\naI103\naI105\naI107\naI108\naI110\naI112\naI113\naI115\naI117\naI119\naI120\naI122\naI124\naI125\naI127\naI129\naI131\naI132\nasS'size'\np10\nI15\nsb."
p95
sg27
S'I18\n.'
p96
sg29
S'I9\n.'
p97
sg22
S'(lp1\nI8\naI11\naI12\naI4\naI12\naI7\naI10\naI2\naI10\naI6\naI9\naI4\naI5\naI10\naI11\naI10\naI10\naI4\na.'
p98
sg24
S'(lp1\nI6\naI6\naI12\naI6\naI18\naI12\naI6\naI6\naI12\naI18\naI24\naI6\naI6\naI24\naI6\naI6\naI6\naI12\na.'
p99
sa(dp100
g37
S'(lp1\nI70\naI67\naI68\naI64\naI81\naI53\naI61\naI81\naI50\naI65\naI81\naI78\naI84\naI52\naI51\naI79\naI68\naI78\na.'
p101
sg5
S"(iscales\nMidiScale\np1\n(dp2\nS'slave'\np3\n(lp4\nI48\naI50\naI52\naI53\naI55\naI57\naI59\naI60\naI62\naI64\naI65\naI67\naI69\naI71\naI72\nasS'min'\np5\nI48\nsS'max'\np6\nI72\nsS'transposition'\np7\nI0\nsS'master_scale'\np8\n(lp9\nI0\naI2\naI4\naI5\naI7\naI9\naI11\naI12\naI14\naI16\naI17\naI19\naI21\naI23\naI24\naI26\naI28\naI29\naI31\naI33\naI35\naI36\naI38\naI40\naI41\naI43\naI45\naI47\naI48\naI50\naI52\naI53\naI55\naI57\naI59\naI60\naI62\naI64\naI65\naI67\naI69\naI71\naI72\naI74\naI76\naI77\naI79\naI81\naI83\naI84\naI86\naI88\naI89\naI91\naI93\naI95\naI96\naI98\naI100\naI101\naI103\naI105\naI107\naI108\naI110\naI112\naI113\naI115\naI117\naI119\naI120\naI122\naI124\naI125\naI127\naI129\naI131\naI132\nasS'size'\np10\nI15\nsb."
p102
sg27
S'I18\n.'
p103
sg29
S'I9\n.'
p104
sg22
S'(lp1\nI8\naI11\naI12\naI4\naI12\naI7\naI10\naI2\naI10\naI6\naI9\naI4\naI5\naI10\naI11\naI10\naI10\naI4\na.'
p105
sg24
S'(lp1\nI6\naI6\naI12\naI6\naI18\naI12\naI6\naI6\naI12\naI18\naI24\naI6\naI6\naI24\naI6\naI6\naI6\naI12\na.'
p106
sa(dp107
g37
S'(lp1\nI70\naI67\naI68\naI64\naI81\naI53\naI61\naI81\naI50\naI65\naI81\naI78\naI84\naI52\naI51\naI79\naI68\naI78\na.'
p108
sg5
S"(iscales\nMidiScale\np1\n(dp2\nS'slave'\np3\n(lp4\nI48\naI50\naI52\naI53\naI55\naI57\naI59\naI60\naI62\naI64\naI65\naI67\naI69\naI71\naI72\nasS'min'\np5\nI48\nsS'max'\np6\nI72\nsS'transposition'\np7\nI0\nsS'master_scale'\np8\n(lp9\nI0\naI2\naI4\naI5\naI7\naI9\naI11\naI12\naI14\naI16\naI17\naI19\naI21\naI23\naI24\naI26\naI28\naI29\naI31\naI33\naI35\naI36\naI38\naI40\naI41\naI43\naI45\naI47\naI48\naI50\naI52\naI53\naI55\naI57\naI59\naI60\naI62\naI64\naI65\naI67\naI69\naI71\naI72\naI74\naI76\naI77\naI79\naI81\naI83\naI84\naI86\naI88\naI89\naI91\naI93\naI95\naI96\naI98\naI100\naI101\naI103\naI105\naI107\naI108\naI110\naI112\naI113\naI115\naI117\naI119\naI120\naI122\naI124\naI125\naI127\naI129\naI131\naI132\nasS'size'\np10\nI15\nsb."
p109
sg27
S'I18\n.'
p110
sg29
S'I9\n.'
p111
sg22
S'(lp1\nI8\naI11\naI12\naI4\naI12\naI7\naI10\naI2\naI10\naI6\naI9\naI4\naI5\naI10\naI11\naI10\naI10\naI4\na.'
p112
sg24
S'(lp1\nI6\naI6\naI12\naI6\naI18\naI12\naI6\naI6\naI12\naI18\naI24\naI6\naI6\naI24\naI6\naI6\naI6\naI12\na.'
p113
sa(dp114
g37
S'(lp1\nI70\naI67\naI68\naI64\naI81\naI53\naI61\naI81\naI50\naI65\naI81\naI78\naI84\naI52\naI51\naI79\naI68\naI78\na.'
p115
sg5
S"(iscales\nMidiScale\np1\n(dp2\nS'slave'\np3\n(lp4\nI48\naI50\naI52\naI53\naI55\naI57\naI59\naI60\naI62\naI64\naI65\naI67\naI69\naI71\naI72\nasS'min'\np5\nI48\nsS'max'\np6\nI72\nsS'transposition'\np7\nI0\nsS'master_scale'\np8\n(lp9\nI0\naI2\naI4\naI5\naI7\naI9\naI11\naI12\naI14\naI16\naI17\naI19\naI21\naI23\naI24\naI26\naI28\naI29\naI31\naI33\naI35\naI36\naI38\naI40\naI41\naI43\naI45\naI47\naI48\naI50\naI52\naI53\naI55\naI57\naI59\naI60\naI62\naI64\naI65\naI67\naI69\naI71\naI72\naI74\naI76\naI77\naI79\naI81\naI83\naI84\naI86\naI88\naI89\naI91\naI93\naI95\naI96\naI98\naI100\naI101\naI103\naI105\naI107\naI108\naI110\naI112\naI113\naI115\naI117\naI119\naI120\naI122\naI124\naI125\naI127\naI129\naI131\naI132\nasS'size'\np10\nI15\nsb."
p116
sg27
S'I18\n.'
p117
sg29
S'I9\n.'
p118
sg22
S'(lp1\nI8\naI11\naI12\naI4\naI12\naI7\naI10\naI2\naI10\naI6\naI9\naI4\naI5\naI10\naI11\naI10\naI10\naI4\na.'
p119
sg24
S'(lp1\nI6\naI6\naI12\naI6\naI18\naI12\naI6\naI6\naI12\naI18\naI24\naI6\naI6\naI24\naI6\naI6\naI6\naI12\na.'
p120
sa(dp121
g37
S'(lp1\nI70\naI67\naI68\naI64\naI81\naI53\naI61\naI81\naI50\naI65\naI81\naI78\naI84\naI52\naI51\naI79\naI68\naI78\na.'
p122
sg5
S"(iscales\nMidiScale\np1\n(dp2\nS'slave'\np3\n(lp4\nI48\naI50\naI52\naI53\naI55\naI57\naI59\naI60\naI62\naI64\naI65\naI67\naI69\naI71\naI72\nasS'min'\np5\nI48\nsS'max'\np6\nI72\nsS'transposition'\np7\nI0\nsS'master_scale'\np8\n(lp9\nI0\naI2\naI4\naI5\naI7\naI9\naI11\naI12\naI14\naI16\naI17\naI19\naI21\naI23\naI24\naI26\naI28\naI29\naI31\naI33\naI35\naI36\naI38\naI40\naI41\naI43\naI45\naI47\naI48\naI50\naI52\naI53\naI55\naI57\naI59\naI60\naI62\naI64\naI65\naI67\naI69\naI71\naI72\naI74\naI76\naI77\naI79\naI81\naI83\naI84\naI86\naI88\naI89\naI91\naI93\naI95\naI96\naI98\naI100\naI101\naI103\naI105\naI107\naI108\naI110\naI112\naI113\naI115\naI117\naI119\naI120\naI122\naI124\naI125\naI127\naI129\naI131\naI132\nasS'size'\np10\nI15\nsb."
p123
sg27
S'I18\n.'
p124
sg29
S'I9\n.'
p125
sg22
S'(lp1\nI8\naI11\naI12\naI4\naI12\naI7\naI10\naI2\naI10\naI6\naI9\naI4\naI5\naI10\naI11\naI10\naI10\naI4\na.'
p126
sg24
S'(lp1\nI6\naI6\naI12\naI6\naI18\naI12\naI6\naI6\naI12\naI18\naI24\naI6\naI6\naI24\naI6\naI6\naI6\naI12\na.'
p127
sa(dp128
g37
S'(lp1\nI70\naI67\naI68\naI64\naI81\naI53\naI61\naI81\naI50\naI65\naI81\naI78\naI84\naI52\naI51\naI79\naI68\naI78\na.'
p129
sg5
S"(iscales\nMidiScale\np1\n(dp2\nS'slave'\np3\n(lp4\nI48\naI50\naI52\naI53\naI55\naI57\naI59\naI60\naI62\naI64\naI65\naI67\naI69\naI71\naI72\nasS'min'\np5\nI48\nsS'max'\np6\nI72\nsS'transposition'\np7\nI0\nsS'master_scale'\np8\n(lp9\nI0\naI2\naI4\naI5\naI7\naI9\naI11\naI12\naI14\naI16\naI17\naI19\naI21\naI23\naI24\naI26\naI28\naI29\naI31\naI33\naI35\naI36\naI38\naI40\naI41\naI43\naI45\naI47\naI48\naI50\naI52\naI53\naI55\naI57\naI59\naI60\naI62\naI64\naI65\naI67\naI69\naI71\naI72\naI74\naI76\naI77\naI79\naI81\naI83\naI84\naI86\naI88\naI89\naI91\naI93\naI95\naI96\naI98\naI100\naI101\naI103\naI105\naI107\naI108\naI110\naI112\naI113\naI115\naI117\naI119\naI120\naI122\naI124\naI125\naI127\naI129\naI131\naI132\nasS'size'\np10\nI15\nsb."
p130
sg27
S'I18\n.'
p131
sg29
S'I9\n.'
p132
sg22
S'(lp1\nI8\naI11\naI12\naI4\naI12\naI7\naI10\naI2\naI10\naI6\naI9\naI4\naI5\naI10\naI11\naI10\naI10\naI4\na.'
p133
sg24
S'(lp1\nI6\naI6\naI12\naI6\naI18\naI12\naI6\naI6\naI12\naI18\naI24\naI6\naI6\naI24\naI6\naI6\naI6\naI12\na.'
p134
sa(dp135
g37
S'(lp1\nI70\naI67\naI68\naI64\naI81\naI53\naI61\naI81\naI50\naI65\naI81\naI78\naI84\naI52\naI51\naI79\naI68\naI78\na.'
p136
sg5
S"(iscales\nMidiScale\np1\n(dp2\nS'slave'\np3\n(lp4\nI48\naI50\naI52\naI53\naI55\naI57\naI59\naI60\naI62\naI64\naI65\naI67\naI69\naI71\naI72\nasS'min'\np5\nI48\nsS'max'\np6\nI72\nsS'transposition'\np7\nI0\nsS'master_scale'\np8\n(lp9\nI0\naI2\naI4\naI5\naI7\naI9\naI11\naI12\naI14\naI16\naI17\naI19\naI21\naI23\naI24\naI26\naI28\naI29\naI31\naI33\naI35\naI36\naI38\naI40\naI41\naI43\naI45\naI47\naI48\naI50\naI52\naI53\naI55\naI57\naI59\naI60\naI62\naI64\naI65\naI67\naI69\naI71\naI72\naI74\naI76\naI77\naI79\naI81\naI83\naI84\naI86\naI88\naI89\naI91\naI93\naI95\naI96\naI98\naI100\naI101\naI103\naI105\naI107\naI108\naI110\naI112\naI113\naI115\naI117\naI119\naI120\naI122\naI124\naI125\naI127\naI129\naI131\naI132\nasS'size'\np10\nI15\nsb."
p137
sg27
S'I18\n.'
p138
sg29
S'I9\n.'
p139
sg22
S'(lp1\nI8\naI11\naI12\naI4\naI12\naI7\naI10\naI2\naI10\naI6\naI9\naI4\naI5\naI10\naI11\naI10\naI10\naI4\na.'
p140
sg24
S'(lp1\nI6\naI6\naI12\naI6\naI18\naI12\naI6\naI6\naI12\naI18\naI24\naI6\naI6\naI24\naI6\naI6\naI6\naI12\na.'
p141
sa(dp142
g37
S'(lp1\nI70\naI67\naI68\naI64\naI81\naI53\naI61\naI81\naI50\naI65\naI81\naI78\naI84\naI52\naI51\naI79\naI68\naI78\na.'
p143
sg5
S"(iscales\nMidiScale\np1\n(dp2\nS'slave'\np3\n(lp4\nI48\naI50\naI52\naI53\naI55\naI57\naI59\naI60\naI62\naI64\naI65\naI67\naI69\naI71\naI72\nasS'min'\np5\nI48\nsS'max'\np6\nI72\nsS'transposition'\np7\nI0\nsS'master_scale'\np8\n(lp9\nI0\naI2\naI4\naI5\naI7\naI9\naI11\naI12\naI14\naI16\naI17\naI19\naI21\naI23\naI24\naI26\naI28\naI29\naI31\naI33\naI35\naI36\naI38\naI40\naI41\naI43\naI45\naI47\naI48\naI50\naI52\naI53\naI55\naI57\naI59\naI60\naI62\naI64\naI65\naI67\naI69\naI71\naI72\naI74\naI76\naI77\naI79\naI81\naI83\naI84\naI86\naI88\naI89\naI91\naI93\naI95\naI96\naI98\naI100\naI101\naI103\naI105\naI107\naI108\naI110\naI112\naI113\naI115\naI117\naI119\naI120\naI122\naI124\naI125\naI127\naI129\naI131\naI132\nasS'size'\np10\nI15\nsb."
p144
sg27
S'I18\n.'
p145
sg29
S'I9\n.'
p146
sg22
S'(lp1\nI8\naI11\naI12\naI4\naI12\naI7\naI10\naI2\naI10\naI6\naI9\naI4\naI5\naI10\naI11\naI10\naI10\naI4\na.'
p147
sg24
S'(lp1\nI6\naI6\naI12\naI6\naI18\naI12\naI6\naI6\naI12\naI18\naI24\naI6\naI6\naI24\naI6\naI6\naI6\naI12\na.'
p148
sasS'old_note'
p149
I40
sS'MYGROUP'
p150
S'225.0.0.250'
p151
sS'trigger_count'
p152
I5
sS'cycle_idx'
p153
I178
sS'step'
p154
I15
sS'vol_depth'
p155
I20
sS'note_repeat'
p156
I0
sS'note_index'
p157
I1
sg37
(lp158
I50
aI30
aI70
aI25
aI40
aI70
aI25
aI40
aI70
aI25
aI60
aI40
aI50
aI70
aI60
aI25
aI40
aI40
aI30
aI60
aI30
aI60
aI25
aI70
aI60
aI25
aI60
aI25
aI40
aI30
aI60
aI50
asS'vol_noise'
p159
g33
sS'open_port_exists'
p160
I01
sS'sp'
p161
I0
sS'vol_autocounter'
p162
I0
sS'note_tie'
p163
I0
sbsS'z'
(i__main__
Pystepseq
p164
(dp165
g4
I5
sg5
(iscales
MidiScale
p166
(dp167
g8
(lp168
I36
aI37
aI38
aI44
aI45
aI46
aI47
asg10
I36
sg11
I60
sg12
I0
sg13
(lp169
I36
aI37
aI38
aI44
aI45
aI46
aI47
asg15
I7
sbsg16
I0
sg17
I53
sg18
I48
sg19
I8123
sg20
I32
sg21
I0
sg22
(lp170
I0
asg24
(lp171
I48
asg26
I3
sg27
I21
sg28
I1
sg29
I9
sg30
I36
sg31
I3
sg32
g33
sg34
(lp172
(dp173
g37
S'(lp1\nI57\naI63\naI50\naI80\naI60\naI68\naI69\naI83\naI45\naI66\naI82\naI53\naI52\naI75\naI64\naI70\naI75\naI44\naI68\naI82\naI81\na.'
p174
sg5
S"(iscales\nMidiScale\np1\n(dp2\nS'slave'\np3\n(lp4\nI48\naI50\naI52\naI53\naI55\naI57\naI59\naI60\naI62\naI64\naI65\naI67\naI69\naI71\naI72\nasS'min'\np5\nI48\nsS'max'\np6\nI72\nsS'transposition'\np7\nI0\nsS'master_scale'\np8\n(lp9\nI0\naI2\naI4\naI5\naI7\naI9\naI11\naI12\naI14\naI16\naI17\naI19\naI21\naI23\naI24\naI26\naI28\naI29\naI31\naI33\naI35\naI36\naI38\naI40\naI41\naI43\naI45\naI47\naI48\naI50\naI52\naI53\naI55\naI57\naI59\naI60\naI62\naI64\naI65\naI67\naI69\naI71\naI72\naI74\naI76\naI77\naI79\naI81\naI83\naI84\naI86\naI88\naI89\naI91\naI93\naI95\naI96\naI98\naI100\naI101\naI103\naI105\naI107\naI108\naI110\naI112\naI113\naI115\naI117\naI119\naI120\naI122\naI124\naI125\naI127\naI129\naI131\naI132\nasS'size'\np10\nI15\nsb."
p175
sg27
S'I21\n.'
p176
sg29
S'I9\n.'
p177
sg22
S'(lp1\nI11\naI10\naI5\naI4\naI12\naI9\naI9\naI5\naI2\naI9\naI6\naI3\naI9\naI3\naI11\naI9\naI6\naI6\naI10\naI7\naI12\na.'
p178
sg24
S'(lp1\nI6\naI18\naI6\naI6\naI12\naI6\naI6\naI6\naI6\naI18\naI12\naI6\naI6\naI6\naI6\naI6\naI18\naI6\naI12\naI6\naI18\na.'
p179
sa(dp180
g37
S'(lp1\nI57\naI63\naI50\naI80\naI60\naI68\naI69\naI83\naI45\naI66\naI82\naI53\naI52\naI75\naI64\naI70\naI75\naI44\naI68\naI82\naI81\na.'
p181
sg5
S"(iscales\nMidiScale\np1\n(dp2\nS'slave'\np3\n(lp4\nI36\naI37\naI38\naI44\naI45\naI46\naI47\nasS'min'\np5\nI36\nsS'max'\np6\nI60\nsS'transposition'\np7\nI0\nsS'master_scale'\np8\n(lp9\nI36\naI37\naI38\naI44\naI45\naI46\naI47\nasS'size'\np10\nI7\nsb."
p182
sg27
S'I21\n.'
p183
sg29
S'I9\n.'
p184
sg22
S'(lp1\nI0\na.'
p185
sg24
S'(lp1\nI24\na.'
p186
sa(dp187
g37
S'(lp1\nI57\naI63\naI50\naI80\naI60\naI68\naI69\naI83\naI45\naI66\naI82\naI53\naI52\naI75\naI64\naI70\naI75\naI44\naI68\naI82\naI81\na.'
p188
sg5
S"(iscales\nMidiScale\np1\n(dp2\nS'slave'\np3\n(lp4\nI36\naI37\naI38\naI44\naI45\naI46\naI47\nasS'min'\np5\nI36\nsS'max'\np6\nI60\nsS'transposition'\np7\nI0\nsS'master_scale'\np8\n(lp9\nI36\naI37\naI38\naI44\naI45\naI46\naI47\nasS'size'\np10\nI7\nsb."
p189
sg27
S'I21\n.'
p190
sg29
S'I9\n.'
p191
sg22
S'(lp1\nI0\na.'
p192
sg24
S'(lp1\nI48\na.'
p193
sa(dp194
g37
S'(lp1\nI57\naI63\naI50\naI80\naI60\naI68\naI69\naI83\naI45\naI66\naI82\naI53\naI52\naI75\naI64\naI70\naI75\naI44\naI68\naI82\naI81\na.'
p195
sg5
S"(iscales\nMidiScale\np1\n(dp2\nS'slave'\np3\n(lp4\nI36\naI37\naI38\naI44\naI45\naI46\naI47\nasS'min'\np5\nI36\nsS'max'\np6\nI60\nsS'transposition'\np7\nI0\nsS'master_scale'\np8\n(lp9\nI36\naI37\naI38\naI44\naI45\naI46\naI47\nasS'size'\np10\nI7\nsb."
p196
sg27
S'I21\n.'
p197
sg29
S'I9\n.'
p198
sg22
S'(lp1\nI0\na.'
p199
sg24
S'(lp1\nI48\na.'
p200
sa(dp201
g37
S'(lp1\nI57\naI63\naI50\naI80\naI60\naI68\naI69\naI83\naI45\naI66\naI82\naI53\naI52\naI75\naI64\naI70\naI75\naI44\naI68\naI82\naI81\na.'
p202
sg5
S"(iscales\nMidiScale\np1\n(dp2\nS'slave'\np3\n(lp4\nI36\naI37\naI38\naI44\naI45\naI46\naI47\nasS'min'\np5\nI36\nsS'max'\np6\nI60\nsS'transposition'\np7\nI0\nsS'master_scale'\np8\n(lp9\nI36\naI37\naI38\naI44\naI45\naI46\naI47\nasS'size'\np10\nI7\nsb."
p203
sg27
S'I21\n.'
p204
sg29
S'I9\n.'
p205
sg22
S'(lp1\nI0\na.'
p206
sg24
S'(lp1\nI24\na.'
p207
sa(dp208
g37
S'(lp1\nI57\naI63\naI50\naI80\naI60\naI68\naI69\naI83\naI45\naI66\naI82\naI53\naI52\naI75\naI64\naI70\naI75\naI44\naI68\naI82\naI81\na.'
p209
sg5
S"(iscales\nMidiScale\np1\n(dp2\nS'slave'\np3\n(lp4\nI48\naI50\naI52\naI53\naI55\naI57\naI59\naI60\naI62\naI64\naI65\naI67\naI69\naI71\naI72\nasS'min'\np5\nI48\nsS'max'\np6\nI72\nsS'transposition'\np7\nI0\nsS'master_scale'\np8\n(lp9\nI0\naI2\naI4\naI5\naI7\naI9\naI11\naI12\naI14\naI16\naI17\naI19\naI21\naI23\naI24\naI26\naI28\naI29\naI31\naI33\naI35\naI36\naI38\naI40\naI41\naI43\naI45\naI47\naI48\naI50\naI52\naI53\naI55\naI57\naI59\naI60\naI62\naI64\naI65\naI67\naI69\naI71\naI72\naI74\naI76\naI77\naI79\naI81\naI83\naI84\naI86\naI88\naI89\naI91\naI93\naI95\naI96\naI98\naI100\naI101\naI103\naI105\naI107\naI108\naI110\naI112\naI113\naI115\naI117\naI119\naI120\naI122\naI124\naI125\naI127\naI129\naI131\naI132\nasS'size'\np10\nI15\nsb."
p210
sg27
S'I21\n.'
p211
sg29
S'I9\n.'
p212
sg22
S'(lp1\nI11\naI10\naI5\naI4\naI12\naI9\naI9\naI5\naI2\naI9\naI6\naI3\naI9\naI3\naI11\naI9\naI6\naI6\naI10\naI7\naI12\na.'
p213
sg24
S'(lp1\nI6\naI18\naI6\naI6\naI12\naI6\naI6\naI6\naI6\naI18\naI12\naI6\naI6\naI6\naI6\naI6\naI18\naI6\naI12\naI6\naI18\na.'
p214
sa(dp215
g37
S'(lp1\nI57\naI63\naI50\naI80\naI60\naI68\naI69\naI83\naI45\naI66\naI82\naI53\naI52\naI75\naI64\naI70\naI75\naI44\naI68\naI82\naI81\na.'
p216
sg5
S"(iscales\nMidiScale\np1\n(dp2\nS'slave'\np3\n(lp4\nI48\naI50\naI52\naI53\naI55\naI57\naI59\naI60\naI62\naI64\naI65\naI67\naI69\naI71\naI72\nasS'min'\np5\nI48\nsS'max'\np6\nI72\nsS'transposition'\np7\nI0\nsS'master_scale'\np8\n(lp9\nI0\naI2\naI4\naI5\naI7\naI9\naI11\naI12\naI14\naI16\naI17\naI19\naI21\naI23\naI24\naI26\naI28\naI29\naI31\naI33\naI35\naI36\naI38\naI40\naI41\naI43\naI45\naI47\naI48\naI50\naI52\naI53\naI55\naI57\naI59\naI60\naI62\naI64\naI65\naI67\naI69\naI71\naI72\naI74\naI76\naI77\naI79\naI81\naI83\naI84\naI86\naI88\naI89\naI91\naI93\naI95\naI96\naI98\naI100\naI101\naI103\naI105\naI107\naI108\naI110\naI112\naI113\naI115\naI117\naI119\naI120\naI122\naI124\naI125\naI127\naI129\naI131\naI132\nasS'size'\np10\nI15\nsb."
p217
sg27
S'I21\n.'
p218
sg29
S'I9\n.'
p219
sg22
S'(lp1\nI11\naI10\naI5\naI4\naI12\naI9\naI9\naI5\naI2\naI9\naI6\naI3\naI9\naI3\naI11\naI9\naI6\naI6\naI10\naI7\naI12\na.'
p220
sg24
S'(lp1\nI6\naI18\naI6\naI6\naI12\naI6\naI6\naI6\naI6\naI18\naI12\naI6\naI6\naI6\naI6\naI6\naI18\naI6\naI12\naI6\naI18\na.'
p221
sa(dp222
g37
S'(lp1\nI57\naI63\naI50\naI80\naI60\naI68\naI69\naI83\naI45\naI66\naI82\naI53\naI52\naI75\naI64\naI70\naI75\naI44\naI68\naI82\naI81\na.'
p223
sg5
S"(iscales\nMidiScale\np1\n(dp2\nS'slave'\np3\n(lp4\nI48\naI50\naI52\naI53\naI55\naI57\naI59\naI60\naI62\naI64\naI65\naI67\naI69\naI71\naI72\nasS'min'\np5\nI48\nsS'max'\np6\nI72\nsS'transposition'\np7\nI0\nsS'master_scale'\np8\n(lp9\nI0\naI2\naI4\naI5\naI7\naI9\naI11\naI12\naI14\naI16\naI17\naI19\naI21\naI23\naI24\naI26\naI28\naI29\naI31\naI33\naI35\naI36\naI38\naI40\naI41\naI43\naI45\naI47\naI48\naI50\naI52\naI53\naI55\naI57\naI59\naI60\naI62\naI64\naI65\naI67\naI69\naI71\naI72\naI74\naI76\naI77\naI79\naI81\naI83\naI84\naI86\naI88\naI89\naI91\naI93\naI95\naI96\naI98\naI100\naI101\naI103\naI105\naI107\naI108\naI110\naI112\naI113\naI115\naI117\naI119\naI120\naI122\naI124\naI125\naI127\naI129\naI131\naI132\nasS'size'\np10\nI15\nsb."
p224
sg27
S'I21\n.'
p225
sg29
S'I9\n.'
p226
sg22
S'(lp1\nI11\naI10\naI5\naI4\naI12\naI9\naI9\naI5\naI2\naI9\naI6\naI3\naI9\naI3\naI11\naI9\naI6\naI6\naI10\naI7\naI12\na.'
p227
sg24
S'(lp1\nI6\naI18\naI6\naI6\naI12\naI6\naI6\naI6\naI6\naI18\naI12\naI6\naI6\naI6\naI6\naI6\naI18\naI6\naI12\naI6\naI18\na.'
p228
sa(dp229
g37
S'(lp1\nI57\naI63\naI50\naI80\naI60\naI68\naI69\naI83\naI45\naI66\naI82\naI53\naI52\naI75\naI64\naI70\naI75\naI44\naI68\naI82\naI81\na.'
p230
sg5
S"(iscales\nMidiScale\np1\n(dp2\nS'slave'\np3\n(lp4\nI48\naI50\naI52\naI53\naI55\naI57\naI59\naI60\naI62\naI64\naI65\naI67\naI69\naI71\naI72\nasS'min'\np5\nI48\nsS'max'\np6\nI72\nsS'transposition'\np7\nI0\nsS'master_scale'\np8\n(lp9\nI0\naI2\naI4\naI5\naI7\naI9\naI11\naI12\naI14\naI16\naI17\naI19\naI21\naI23\naI24\naI26\naI28\naI29\naI31\naI33\naI35\naI36\naI38\naI40\naI41\naI43\naI45\naI47\naI48\naI50\naI52\naI53\naI55\naI57\naI59\naI60\naI62\naI64\naI65\naI67\naI69\naI71\naI72\naI74\naI76\naI77\naI79\naI81\naI83\naI84\naI86\naI88\naI89\naI91\naI93\naI95\naI96\naI98\naI100\naI101\naI103\naI105\naI107\naI108\naI110\naI112\naI113\naI115\naI117\naI119\naI120\naI122\naI124\naI125\naI127\naI129\naI131\naI132\nasS'size'\np10\nI15\nsb."
p231
sg27
S'I21\n.'
p232
sg29
S'I9\n.'
p233
sg22
S'(lp1\nI11\naI10\naI5\naI4\naI12\naI9\naI9\naI5\naI2\naI9\naI6\naI3\naI9\naI3\naI11\naI9\naI6\naI6\naI10\naI7\naI12\na.'
p234
sg24
S'(lp1\nI6\naI18\naI6\naI6\naI12\naI6\naI6\naI6\naI6\naI18\naI12\naI6\naI6\naI6\naI6\naI6\naI18\naI6\naI12\naI6\naI18\na.'
p235
sa(dp236
g37
S'(lp1\nI57\naI63\naI50\naI80\naI60\naI68\naI69\naI83\naI45\naI66\naI82\naI53\naI52\naI75\naI64\naI70\naI75\naI44\naI68\naI82\naI81\na.'
p237
sg5
S"(iscales\nMidiScale\np1\n(dp2\nS'slave'\np3\n(lp4\nI48\naI50\naI52\naI53\naI55\naI57\naI59\naI60\naI62\naI64\naI65\naI67\naI69\naI71\naI72\nasS'min'\np5\nI48\nsS'max'\np6\nI72\nsS'transposition'\np7\nI0\nsS'master_scale'\np8\n(lp9\nI0\naI2\naI4\naI5\naI7\naI9\naI11\naI12\naI14\naI16\naI17\naI19\naI21\naI23\naI24\naI26\naI28\naI29\naI31\naI33\naI35\naI36\naI38\naI40\naI41\naI43\naI45\naI47\naI48\naI50\naI52\naI53\naI55\naI57\naI59\naI60\naI62\naI64\naI65\naI67\naI69\naI71\naI72\naI74\naI76\naI77\naI79\naI81\naI83\naI84\naI86\naI88\naI89\naI91\naI93\naI95\naI96\naI98\naI100\naI101\naI103\naI105\naI107\naI108\naI110\naI112\naI113\naI115\naI117\naI119\naI120\naI122\naI124\naI125\naI127\naI129\naI131\naI132\nasS'size'\np10\nI15\nsb."
p238
sg27
S'I21\n.'
p239
sg29
S'I9\n.'
p240
sg22
S'(lp1\nI11\naI10\naI5\naI4\naI12\naI9\naI9\naI5\naI2\naI9\naI6\naI3\naI9\naI3\naI11\naI9\naI6\naI6\naI10\naI7\naI12\na.'
p241
sg24
S'(lp1\nI6\naI18\naI6\naI6\naI12\naI6\naI6\naI6\naI6\naI18\naI12\naI6\naI6\naI6\naI6\naI6\naI18\naI6\naI12\naI6\naI18\na.'
p242
sa(dp243
g37
S'(lp1\nI57\naI63\naI50\naI80\naI60\naI68\naI69\naI83\naI45\naI66\naI82\naI53\naI52\naI75\naI64\naI70\naI75\naI44\naI68\naI82\naI81\na.'
p244
sg5
S"(iscales\nMidiScale\np1\n(dp2\nS'slave'\np3\n(lp4\nI48\naI50\naI52\naI53\naI55\naI57\naI59\naI60\naI62\naI64\naI65\naI67\naI69\naI71\naI72\nasS'min'\np5\nI48\nsS'max'\np6\nI72\nsS'transposition'\np7\nI0\nsS'master_scale'\np8\n(lp9\nI0\naI2\naI4\naI5\naI7\naI9\naI11\naI12\naI14\naI16\naI17\naI19\naI21\naI23\naI24\naI26\naI28\naI29\naI31\naI33\naI35\naI36\naI38\naI40\naI41\naI43\naI45\naI47\naI48\naI50\naI52\naI53\naI55\naI57\naI59\naI60\naI62\naI64\naI65\naI67\naI69\naI71\naI72\naI74\naI76\naI77\naI79\naI81\naI83\naI84\naI86\naI88\naI89\naI91\naI93\naI95\naI96\naI98\naI100\naI101\naI103\naI105\naI107\naI108\naI110\naI112\naI113\naI115\naI117\naI119\naI120\naI122\naI124\naI125\naI127\naI129\naI131\naI132\nasS'size'\np10\nI15\nsb."
p245
sg27
S'I21\n.'
p246
sg29
S'I9\n.'
p247
sg22
S'(lp1\nI11\naI10\naI5\naI4\naI12\naI9\naI9\naI5\naI2\naI9\naI6\naI3\naI9\naI3\naI11\naI9\naI6\naI6\naI10\naI7\naI12\na.'
p248
sg24
S'(lp1\nI6\naI18\naI6\naI6\naI12\naI6\naI6\naI6\naI6\naI18\naI12\naI6\naI6\naI6\naI6\naI6\naI18\naI6\naI12\naI6\naI18\na.'
p249
sa(dp250
g37
S'(lp1\nI57\naI63\naI50\naI80\naI60\naI68\naI69\naI83\naI45\naI66\naI82\naI53\naI52\naI75\naI64\naI70\naI75\naI44\naI68\naI82\naI81\na.'
p251
sg5
S"(iscales\nMidiScale\np1\n(dp2\nS'slave'\np3\n(lp4\nI48\naI50\naI52\naI53\naI55\naI57\naI59\naI60\naI62\naI64\naI65\naI67\naI69\naI71\naI72\nasS'min'\np5\nI48\nsS'max'\np6\nI72\nsS'transposition'\np7\nI0\nsS'master_scale'\np8\n(lp9\nI0\naI2\naI4\naI5\naI7\naI9\naI11\naI12\naI14\naI16\naI17\naI19\naI21\naI23\naI24\naI26\naI28\naI29\naI31\naI33\naI35\naI36\naI38\naI40\naI41\naI43\naI45\naI47\naI48\naI50\naI52\naI53\naI55\naI57\naI59\naI60\naI62\naI64\naI65\naI67\naI69\naI71\naI72\naI74\naI76\naI77\naI79\naI81\naI83\naI84\naI86\naI88\naI89\naI91\naI93\naI95\naI96\naI98\naI100\naI101\naI103\naI105\naI107\naI108\naI110\naI112\naI113\naI115\naI117\naI119\naI120\naI122\naI124\naI125\naI127\naI129\naI131\naI132\nasS'size'\np10\nI15\nsb."
p252
sg27
S'I21\n.'
p253
sg29
S'I9\n.'
p254
sg22
S'(lp1\nI11\naI10\naI5\naI4\naI12\naI9\naI9\naI5\naI2\naI9\naI6\naI3\naI9\naI3\naI11\naI9\naI6\naI6\naI10\naI7\naI12\na.'
p255
sg24
S'(lp1\nI6\naI18\naI6\naI6\naI12\naI6\naI6\naI6\naI6\naI18\naI12\naI6\naI6\naI6\naI6\naI6\naI18\naI6\naI12\naI6\naI18\na.'
p256
sa(dp257
g37
S'(lp1\nI57\naI63\naI50\naI80\naI60\naI68\naI69\naI83\naI45\naI66\naI82\naI53\naI52\naI75\naI64\naI70\naI75\naI44\naI68\naI82\naI81\na.'
p258
sg5
S"(iscales\nMidiScale\np1\n(dp2\nS'slave'\np3\n(lp4\nI48\naI50\naI52\naI53\naI55\naI57\naI59\naI60\naI62\naI64\naI65\naI67\naI69\naI71\naI72\nasS'min'\np5\nI48\nsS'max'\np6\nI72\nsS'transposition'\np7\nI0\nsS'master_scale'\np8\n(lp9\nI0\naI2\naI4\naI5\naI7\naI9\naI11\naI12\naI14\naI16\naI17\naI19\naI21\naI23\naI24\naI26\naI28\naI29\naI31\naI33\naI35\naI36\naI38\naI40\naI41\naI43\naI45\naI47\naI48\naI50\naI52\naI53\naI55\naI57\naI59\naI60\naI62\naI64\naI65\naI67\naI69\naI71\naI72\naI74\naI76\naI77\naI79\naI81\naI83\naI84\naI86\naI88\naI89\naI91\naI93\naI95\naI96\naI98\naI100\naI101\naI103\naI105\naI107\naI108\naI110\naI112\naI113\naI115\naI117\naI119\naI120\naI122\naI124\naI125\naI127\naI129\naI131\naI132\nasS'size'\np10\nI15\nsb."
p259
sg27
S'I21\n.'
p260
sg29
S'I9\n.'
p261
sg22
S'(lp1\nI11\naI10\naI5\naI4\naI12\naI9\naI9\naI5\naI2\naI9\naI6\naI3\naI9\naI3\naI11\naI9\naI6\naI6\naI10\naI7\naI12\na.'
p262
sg24
S'(lp1\nI6\naI18\naI6\naI6\naI12\naI6\naI6\naI6\naI6\naI18\naI12\naI6\naI6\naI6\naI6\naI6\naI18\naI6\naI12\naI6\naI18\na.'
p263
sa(dp264
g37
S'(lp1\nI57\naI63\naI50\naI80\naI60\naI68\naI69\naI83\naI45\naI66\naI82\naI53\naI52\naI75\naI64\naI70\naI75\naI44\naI68\naI82\naI81\na.'
p265
sg5
S"(iscales\nMidiScale\np1\n(dp2\nS'slave'\np3\n(lp4\nI48\naI50\naI52\naI53\naI55\naI57\naI59\naI60\naI62\naI64\naI65\naI67\naI69\naI71\naI72\nasS'min'\np5\nI48\nsS'max'\np6\nI72\nsS'transposition'\np7\nI0\nsS'master_scale'\np8\n(lp9\nI0\naI2\naI4\naI5\naI7\naI9\naI11\naI12\naI14\naI16\naI17\naI19\naI21\naI23\naI24\naI26\naI28\naI29\naI31\naI33\naI35\naI36\naI38\naI40\naI41\naI43\naI45\naI47\naI48\naI50\naI52\naI53\naI55\naI57\naI59\naI60\naI62\naI64\naI65\naI67\naI69\naI71\naI72\naI74\naI76\naI77\naI79\naI81\naI83\naI84\naI86\naI88\naI89\naI91\naI93\naI95\naI96\naI98\naI100\naI101\naI103\naI105\naI107\naI108\naI110\naI112\naI113\naI115\naI117\naI119\naI120\naI122\naI124\naI125\naI127\naI129\naI131\naI132\nasS'size'\np10\nI15\nsb."
p266
sg27
S'I21\n.'
p267
sg29
S'I9\n.'
p268
sg22
S'(lp1\nI11\naI10\naI5\naI4\naI12\naI9\naI9\naI5\naI2\naI9\naI6\naI3\naI9\naI3\naI11\naI9\naI6\naI6\naI10\naI7\naI12\na.'
p269
sg24
S'(lp1\nI6\naI18\naI6\naI6\naI12\naI6\naI6\naI6\naI6\naI18\naI12\naI6\naI6\naI6\naI6\naI6\naI18\naI6\naI12\naI6\naI18\na.'
p270
sa(dp271
g37
S'(lp1\nI57\naI63\naI50\naI80\naI60\naI68\naI69\naI83\naI45\naI66\naI82\naI53\naI52\naI75\naI64\naI70\naI75\naI44\naI68\naI82\naI81\na.'
p272
sg5
S"(iscales\nMidiScale\np1\n(dp2\nS'slave'\np3\n(lp4\nI48\naI50\naI52\naI53\naI55\naI57\naI59\naI60\naI62\naI64\naI65\naI67\naI69\naI71\naI72\nasS'min'\np5\nI48\nsS'max'\np6\nI72\nsS'transposition'\np7\nI0\nsS'master_scale'\np8\n(lp9\nI0\naI2\naI4\naI5\naI7\naI9\naI11\naI12\naI14\naI16\naI17\naI19\naI21\naI23\naI24\naI26\naI28\naI29\naI31\naI33\naI35\naI36\naI38\naI40\naI41\naI43\naI45\naI47\naI48\naI50\naI52\naI53\naI55\naI57\naI59\naI60\naI62\naI64\naI65\naI67\naI69\naI71\naI72\naI74\naI76\naI77\naI79\naI81\naI83\naI84\naI86\naI88\naI89\naI91\naI93\naI95\naI96\naI98\naI100\naI101\naI103\naI105\naI107\naI108\naI110\naI112\naI113\naI115\naI117\naI119\naI120\naI122\naI124\naI125\naI127\naI129\naI131\naI132\nasS'size'\np10\nI15\nsb."
p273
sg27
S'I21\n.'
p274
sg29
S'I9\n.'
p275
sg22
S'(lp1\nI11\naI10\naI5\naI4\naI12\naI9\naI9\naI5\naI2\naI9\naI6\naI3\naI9\naI3\naI11\naI9\naI6\naI6\naI10\naI7\naI12\na.'
p276
sg24
S'(lp1\nI6\naI18\naI6\naI6\naI12\naI6\naI6\naI6\naI6\naI18\naI12\naI6\naI6\naI6\naI6\naI6\naI18\naI6\naI12\naI6\naI18\na.'
p277
sa(dp278
g37
S'(lp1\nI57\naI63\naI50\naI80\naI60\naI68\naI69\naI83\naI45\naI66\naI82\naI53\naI52\naI75\naI64\naI70\naI75\naI44\naI68\naI82\naI81\na.'
p279
sg5
S"(iscales\nMidiScale\np1\n(dp2\nS'slave'\np3\n(lp4\nI48\naI50\naI52\naI53\naI55\naI57\naI59\naI60\naI62\naI64\naI65\naI67\naI69\naI71\naI72\nasS'min'\np5\nI48\nsS'max'\np6\nI72\nsS'transposition'\np7\nI0\nsS'master_scale'\np8\n(lp9\nI0\naI2\naI4\naI5\naI7\naI9\naI11\naI12\naI14\naI16\naI17\naI19\naI21\naI23\naI24\naI26\naI28\naI29\naI31\naI33\naI35\naI36\naI38\naI40\naI41\naI43\naI45\naI47\naI48\naI50\naI52\naI53\naI55\naI57\naI59\naI60\naI62\naI64\naI65\naI67\naI69\naI71\naI72\naI74\naI76\naI77\naI79\naI81\naI83\naI84\naI86\naI88\naI89\naI91\naI93\naI95\naI96\naI98\naI100\naI101\naI103\naI105\naI107\naI108\naI110\naI112\naI113\naI115\naI117\naI119\naI120\naI122\naI124\naI125\naI127\naI129\naI131\naI132\nasS'size'\np10\nI15\nsb."
p280
sg27
S'I21\n.'
p281
sg29
S'I9\n.'
p282
sg22
S'(lp1\nI11\naI10\naI5\naI4\naI12\naI9\naI9\naI5\naI2\naI9\naI6\naI3\naI9\naI3\naI11\naI9\naI6\naI6\naI10\naI7\naI12\na.'
p283
sg24
S'(lp1\nI6\naI18\naI6\naI6\naI12\naI6\naI6\naI6\naI6\naI18\naI12\naI6\naI6\naI6\naI6\naI6\naI18\naI6\naI12\naI6\naI18\na.'
p284
sasg149
I36
sg150
g151
sg152
I35
sg153
I178
sg154
I11
sg155
I20
sg156
I0
sg157
I0
sg37
(lp285
I57
aI63
aI50
aI80
aI60
aI68
aI69
aI83
aI45
aI66
aI82
aI53
aI52
aI75
aI64
aI70
aI75
aI44
aI68
aI82
aI81
asg159
g33
sg160
I01
sg161
I0
sg162
I0
sg163
I0
sbs.