(dp1
S'a'
(i__main__
Pystepseq
p2
(dp3
S'note_depth'
p4
I5
sS'scl'
p5
(iscales
MidiScale
p6
(dp7
S'slave'
p8
(lp9
I48
aI50
aI52
aI53
aI55
aI57
aI59
aI60
aI62
aI64
aI65
aI67
aI69
aI71
aI72
asS'min'
p10
I48
sS'max'
p11
I72
sS'transposition'
p12
I-14
sS'master_scale'
p13
(lp14
I0
aI2
aI4
aI5
aI7
aI9
aI11
aI12
aI14
aI16
aI17
aI19
aI21
aI23
aI24
aI26
aI28
aI29
aI31
aI33
aI35
aI36
aI38
aI40
aI41
aI43
aI45
aI47
aI48
aI50
aI52
aI53
aI55
aI57
aI59
aI60
aI62
aI64
aI65
aI67
aI69
aI71
aI72
aI74
aI76
aI77
aI79
aI81
aI83
aI84
aI86
aI88
aI89
aI91
aI93
aI95
aI96
aI98
aI100
aI101
aI103
aI105
aI107
aI108
aI110
aI112
aI113
aI115
aI117
aI119
aI120
aI122
aI124
aI125
aI127
aI129
aI131
aI132
asS'size'
p15
I15
sbsS'note_autocounter'
p16
I0
sS'vol'
p17
I60
sS'note_length'
p18
I12
sS'MYPORT'
p19
I8123
sS'beats'
p20
I32
sS'sounding'
p21
I0
sS'note_list'
p22
(lp23
I12
aI5
aI5
aI3
aI5
aI3
aI6
aI6
aI12
aI2
aI3
aI3
aI3
aI9
aI2
aI9
aI7
aI8
aI11
aI5
aI6
aI4
aI4
aI12
aI12
aI9
aI8
aI5
aI5
aI5
aI2
aI4
asS'len_list'
p24
(lp25
I18
aI12
aI12
aI18
aI12
aI12
aI12
asS'current_slot'
p26
I1
sS'end'
p27
I7
sS'runstate'
p28
I1
sS'chn'
p29
I0
sS'note'
p30
I43
sS'old_slot'
p31
I1
sS'note_noise'
p32
S'white'
p33
sS'pickle_slots'
p34
(lp35
(dp36
S'vol_list'
p37
S'(lp1\nI62\naI62\naI69\naI64\naI63\naI64\naI51\naI68\naI65\naI76\naI45\naI57\naI62\naI51\naI74\naI74\naI67\naI52\naI76\naI59\naI72\naI83\naI48\naI53\naI78\naI76\naI77\naI58\naI66\naI58\naI57\naI54\na.'
p38
sg5
S"(iscales\nMidiScale\np1\n(dp2\nS'slave'\np3\n(lp4\nI48\naI50\naI52\naI53\naI55\naI57\naI59\naI60\naI62\naI64\naI65\naI67\naI69\naI71\naI72\nasS'min'\np5\nI48\nsS'max'\np6\nI72\nsS'transposition'\np7\nI0\nsS'master_scale'\np8\n(lp9\nI0\naI2\naI4\naI5\naI7\naI9\naI11\naI12\naI14\naI16\naI17\naI19\naI21\naI23\naI24\naI26\naI28\naI29\naI31\naI33\naI35\naI36\naI38\naI40\naI41\naI43\naI45\naI47\naI48\naI50\naI52\naI53\naI55\naI57\naI59\naI60\naI62\naI64\naI65\naI67\naI69\naI71\naI72\naI74\naI76\naI77\naI79\naI81\naI83\naI84\naI86\naI88\naI89\naI91\naI93\naI95\naI96\naI98\naI100\naI101\naI103\naI105\naI107\naI108\naI110\naI112\naI113\naI115\naI117\naI119\naI120\naI122\naI124\naI125\naI127\naI129\naI131\naI132\nasS'size'\np10\nI15\nsb."
p39
sg27
S'I16\n.'
p40
sg29
S'I0\n.'
p41
sg22
S'(lp1\nI9\naI4\naI3\naI6\naI2\naI6\naI8\naI2\naI12\naI12\naI11\naI9\naI9\naI5\naI4\naI4\naI12\naI7\naI9\naI9\naI11\naI7\naI5\naI12\naI8\naI8\naI11\naI2\naI2\naI2\naI12\naI12\na.'
p42
sg24
S'(lp1\nI6\naI6\naI6\naI6\naI6\naI6\naI6\naI6\naI6\naI6\naI6\naI6\naI6\naI6\naI6\naI6\naI6\naI6\naI6\naI6\naI6\naI6\naI6\naI6\naI6\naI6\naI6\naI6\naI6\naI6\naI6\naI6\na.'
p43
sa(dp44
g37
S'(lp1\nI79\naI73\naI61\naI82\naI60\naI46\naI48\naI53\naI57\naI51\naI84\naI74\naI60\naI83\naI72\naI48\naI50\naI81\naI45\naI46\naI76\naI66\naI63\naI71\naI62\naI66\naI84\naI46\naI75\naI76\naI53\naI69\na.'
p45
sg5
S"(iscales\nMidiScale\np1\n(dp2\nS'slave'\np3\n(lp4\nI48\naI50\naI52\naI53\naI55\naI57\naI59\naI60\naI62\naI64\naI65\naI67\naI69\naI71\naI72\nasS'min'\np5\nI48\nsS'max'\np6\nI72\nsS'transposition'\np7\nI-14\nsS'master_scale'\np8\n(lp9\nI0\naI2\naI4\naI5\naI7\naI9\naI11\naI12\naI14\naI16\naI17\naI19\naI21\naI23\naI24\naI26\naI28\naI29\naI31\naI33\naI35\naI36\naI38\naI40\naI41\naI43\naI45\naI47\naI48\naI50\naI52\naI53\naI55\naI57\naI59\naI60\naI62\naI64\naI65\naI67\naI69\naI71\naI72\naI74\naI76\naI77\naI79\naI81\naI83\naI84\naI86\naI88\naI89\naI91\naI93\naI95\naI96\naI98\naI100\naI101\naI103\naI105\naI107\naI108\naI110\naI112\naI113\naI115\naI117\naI119\naI120\naI122\naI124\naI125\naI127\naI129\naI131\naI132\nasS'size'\np10\nI15\nsb."
p46
sg27
S'I16\n.'
p47
sg29
S'I0\n.'
p48
sg22
S'(lp1\nI2\naI7\naI7\naI12\naI5\naI7\naI5\naI10\naI8\naI12\naI6\naI2\naI3\naI4\naI4\naI5\naI5\naI4\naI2\naI2\naI3\naI10\naI4\naI3\naI10\naI12\naI4\naI7\naI4\naI8\naI10\naI8\na.'
p49
sg24
S'(lp1\nI6\naI24\naI18\naI12\naI18\naI6\naI6\naI6\na.'
p50
sa(dp51
g37
S'(lp1\nI72\naI74\naI69\naI53\naI61\naI52\naI72\naI49\naI55\naI46\naI47\naI56\naI63\naI53\naI64\naI75\naI82\naI57\naI81\naI56\naI67\naI46\naI67\naI49\naI63\naI72\naI80\naI76\naI69\naI45\naI52\naI55\na.'
p52
sg5
S"(iscales\nMidiScale\np1\n(dp2\nS'slave'\np3\n(lp4\nI48\naI50\naI52\naI53\naI55\naI57\naI59\naI60\naI62\naI64\naI65\naI67\naI69\naI71\naI72\nasS'min'\np5\nI48\nsS'max'\np6\nI72\nsS'transposition'\np7\nI-14\nsS'master_scale'\np8\n(lp9\nI0\naI2\naI4\naI5\naI7\naI9\naI11\naI12\naI14\naI16\naI17\naI19\naI21\naI23\naI24\naI26\naI28\naI29\naI31\naI33\naI35\naI36\naI38\naI40\naI41\naI43\naI45\naI47\naI48\naI50\naI52\naI53\naI55\naI57\naI59\naI60\naI62\naI64\naI65\naI67\naI69\naI71\naI72\naI74\naI76\naI77\naI79\naI81\naI83\naI84\naI86\naI88\naI89\naI91\naI93\naI95\naI96\naI98\naI100\naI101\naI103\naI105\naI107\naI108\naI110\naI112\naI113\naI115\naI117\naI119\naI120\naI122\naI124\naI125\naI127\naI129\naI131\naI132\nasS'size'\np10\nI15\nsb."
p53
sg27
S'I7\n.'
p54
sg29
S'I0\n.'
p55
sg22
S'(lp1\nI11\naI5\naI2\naI8\naI5\naI10\naI7\naI6\naI7\naI10\naI4\naI3\naI6\naI9\naI10\naI2\naI2\naI11\naI12\naI9\naI5\naI9\naI8\naI10\naI2\naI3\naI4\naI6\naI5\naI6\naI4\naI9\na.'
p56
sg24
S'(lp1\nI6\naI12\naI6\naI18\naI24\naI12\naI18\na.'
p57
sa(dp58
g37
S'(lp1\nI49\naI50\naI82\naI55\naI55\naI54\naI47\naI61\naI72\naI63\naI77\naI65\naI68\naI64\naI63\naI71\naI58\naI83\naI65\naI46\naI53\naI55\naI75\naI71\naI46\naI74\naI69\naI78\naI45\naI63\naI44\naI44\na.'
p59
sg5
S"(iscales\nMidiScale\np1\n(dp2\nS'slave'\np3\n(lp4\nI48\naI50\naI52\naI53\naI55\naI57\naI59\naI60\naI62\naI64\naI65\naI67\naI69\naI71\naI72\nasS'min'\np5\nI48\nsS'max'\np6\nI72\nsS'transposition'\np7\nI-14\nsS'master_scale'\np8\n(lp9\nI0\naI2\naI4\naI5\naI7\naI9\naI11\naI12\naI14\naI16\naI17\naI19\naI21\naI23\naI24\naI26\naI28\naI29\naI31\naI33\naI35\naI36\naI38\naI40\naI41\naI43\naI45\naI47\naI48\naI50\naI52\naI53\naI55\naI57\naI59\naI60\naI62\naI64\naI65\naI67\naI69\naI71\naI72\naI74\naI76\naI77\naI79\naI81\naI83\naI84\naI86\naI88\naI89\naI91\naI93\naI95\naI96\naI98\naI100\naI101\naI103\naI105\naI107\naI108\naI110\naI112\naI113\naI115\naI117\naI119\naI120\naI122\naI124\naI125\naI127\naI129\naI131\naI132\nasS'size'\np10\nI15\nsb."
p60
sg27
S'I10\n.'
p61
sg29
S'I0\n.'
p62
sg22
S'(lp1\nI5\naI11\naI11\naI2\naI7\naI11\naI5\naI12\naI6\naI9\naI11\naI5\naI6\naI12\naI11\naI11\naI6\naI11\naI8\naI2\naI9\naI9\naI12\naI7\naI3\naI10\naI8\naI10\naI12\naI5\naI6\naI3\na.'
p63
sg24
S'(lp1\nI6\naI6\naI6\naI6\naI6\naI18\naI6\naI24\naI6\naI12\na.'
p64
sa(dp65
g37
S'(lp1\nI51\naI66\naI81\naI57\naI45\naI51\naI61\naI66\naI78\naI44\naI76\naI60\naI66\naI80\naI55\naI74\naI71\naI83\naI68\naI76\naI49\naI55\naI46\naI69\naI77\naI54\naI57\naI68\naI56\naI79\naI44\naI61\na.'
p66
sg5
S"(iscales\nMidiScale\np1\n(dp2\nS'slave'\np3\n(lp4\nI48\naI50\naI52\naI53\naI55\naI57\naI59\naI60\naI62\naI64\naI65\naI67\naI69\naI71\naI72\nasS'min'\np5\nI48\nsS'max'\np6\nI72\nsS'transposition'\np7\nI-14\nsS'master_scale'\np8\n(lp9\nI0\naI2\naI4\naI5\naI7\naI9\naI11\naI12\naI14\naI16\naI17\naI19\naI21\naI23\naI24\naI26\naI28\naI29\naI31\naI33\naI35\naI36\naI38\naI40\naI41\naI43\naI45\naI47\naI48\naI50\naI52\naI53\naI55\naI57\naI59\naI60\naI62\naI64\naI65\naI67\naI69\naI71\naI72\naI74\naI76\naI77\naI79\naI81\naI83\naI84\naI86\naI88\naI89\naI91\naI93\naI95\naI96\naI98\naI100\naI101\naI103\naI105\naI107\naI108\naI110\naI112\naI113\naI115\naI117\naI119\naI120\naI122\naI124\naI125\naI127\naI129\naI131\naI132\nasS'size'\np10\nI15\nsb."
p67
sg27
S'I9\n.'
p68
sg29
S'I0\n.'
p69
sg22
S'(lp1\nI10\naI8\naI7\naI7\naI2\naI5\naI9\naI2\naI11\naI12\naI11\naI9\naI5\naI10\naI11\naI10\naI3\naI9\naI11\naI12\naI9\naI8\naI6\naI4\naI10\naI10\naI10\naI10\naI10\naI6\naI3\naI2\na.'
p70
sg24
S'(lp1\nI24\naI6\naI6\naI6\naI12\naI6\naI24\naI6\naI6\na.'
p71
sa(dp72
g37
S'(lp1\nI75\naI61\naI73\naI75\naI56\naI61\naI54\naI83\naI59\naI64\naI50\naI56\naI77\naI44\naI67\naI82\naI46\naI48\naI84\naI59\naI54\naI78\naI65\naI84\naI68\naI63\naI51\naI64\naI71\naI56\naI81\naI81\na.'
p73
sg5
S"(iscales\nMidiScale\np1\n(dp2\nS'slave'\np3\n(lp4\nI48\naI50\naI52\naI53\naI55\naI57\naI59\naI60\naI62\naI64\naI65\naI67\naI69\naI71\naI72\nasS'min'\np5\nI48\nsS'max'\np6\nI72\nsS'transposition'\np7\nI-14\nsS'master_scale'\np8\n(lp9\nI0\naI2\naI4\naI5\naI7\naI9\naI11\naI12\naI14\naI16\naI17\naI19\naI21\naI23\naI24\naI26\naI28\naI29\naI31\naI33\naI35\naI36\naI38\naI40\naI41\naI43\naI45\naI47\naI48\naI50\naI52\naI53\naI55\naI57\naI59\naI60\naI62\naI64\naI65\naI67\naI69\naI71\naI72\naI74\naI76\naI77\naI79\naI81\naI83\naI84\naI86\naI88\naI89\naI91\naI93\naI95\naI96\naI98\naI100\naI101\naI103\naI105\naI107\naI108\naI110\naI112\naI113\naI115\naI117\naI119\naI120\naI122\naI124\naI125\naI127\naI129\naI131\naI132\nasS'size'\np10\nI15\nsb."
p74
sg27
S'I8\n.'
p75
sg29
S'I0\n.'
p76
sg22
S'(lp1\nI9\naI4\naI4\naI2\naI4\naI11\naI9\naI2\naI11\naI4\naI2\naI3\naI7\naI8\naI6\naI9\naI4\naI3\naI9\naI2\naI6\naI2\naI9\naI2\naI3\naI12\naI7\naI11\naI8\naI9\naI8\naI3\na.'
p77
sg24
S'(lp1\nI12\naI18\naI6\naI18\naI12\naI6\naI18\naI6\na.'
p78
sa(dp79
g37
S'(lp1\nI79\naI73\naI61\naI82\naI60\naI46\naI48\naI53\naI57\naI51\naI84\naI74\naI60\naI83\naI72\naI48\naI50\naI81\naI45\naI46\naI76\naI66\naI63\naI71\naI62\naI66\naI84\naI46\naI75\naI76\naI53\naI69\na.'
p80
sg5
S"(iscales\nMidiScale\np1\n(dp2\nS'slave'\np3\n(lp4\nI48\naI50\naI52\naI53\naI55\naI57\naI59\naI60\naI62\naI64\naI65\naI67\naI69\naI71\naI72\nasS'min'\np5\nI48\nsS'max'\np6\nI72\nsS'transposition'\np7\nI-14\nsS'master_scale'\np8\n(lp9\nI0\naI2\naI4\naI5\naI7\naI9\naI11\naI12\naI14\naI16\naI17\naI19\naI21\naI23\naI24\naI26\naI28\naI29\naI31\naI33\naI35\naI36\naI38\naI40\naI41\naI43\naI45\naI47\naI48\naI50\naI52\naI53\naI55\naI57\naI59\naI60\naI62\naI64\naI65\naI67\naI69\naI71\naI72\naI74\naI76\naI77\naI79\naI81\naI83\naI84\naI86\naI88\naI89\naI91\naI93\naI95\naI96\naI98\naI100\naI101\naI103\naI105\naI107\naI108\naI110\naI112\naI113\naI115\naI117\naI119\naI120\naI122\naI124\naI125\naI127\naI129\naI131\naI132\nasS'size'\np10\nI15\nsb."
p81
sg27
S'I7\n.'
p82
sg29
S'I0\n.'
p83
sg22
S'(lp1\nI12\naI5\naI5\naI3\naI5\naI3\naI6\naI6\naI12\naI2\naI3\naI3\naI3\naI9\naI2\naI9\naI7\naI8\naI11\naI5\naI6\naI4\naI4\naI12\naI12\naI9\naI8\naI5\naI5\naI5\naI2\naI4\na.'
p84
sg24
S'(lp1\nI18\naI12\naI12\naI18\naI12\naI12\naI12\na.'
p85
sa(dp86
g37
S'(lp1\nI62\naI62\naI69\naI64\naI63\naI64\naI51\naI68\naI65\naI76\naI45\naI57\naI62\naI51\naI74\naI74\naI67\naI52\naI76\naI59\naI72\naI83\naI48\naI53\naI78\naI76\naI77\naI58\naI66\naI58\naI57\naI54\na.'
p87
sg5
S"(iscales\nMidiScale\np1\n(dp2\nS'slave'\np3\n(lp4\nI48\naI50\naI52\naI53\naI55\naI57\naI59\naI60\naI62\naI64\naI65\naI67\naI69\naI71\naI72\nasS'min'\np5\nI48\nsS'max'\np6\nI72\nsS'transposition'\np7\nI0\nsS'master_scale'\np8\n(lp9\nI0\naI2\naI4\naI5\naI7\naI9\naI11\naI12\naI14\naI16\naI17\naI19\naI21\naI23\naI24\naI26\naI28\naI29\naI31\naI33\naI35\naI36\naI38\naI40\naI41\naI43\naI45\naI47\naI48\naI50\naI52\naI53\naI55\naI57\naI59\naI60\naI62\naI64\naI65\naI67\naI69\naI71\naI72\naI74\naI76\naI77\naI79\naI81\naI83\naI84\naI86\naI88\naI89\naI91\naI93\naI95\naI96\naI98\naI100\naI101\naI103\naI105\naI107\naI108\naI110\naI112\naI113\naI115\naI117\naI119\naI120\naI122\naI124\naI125\naI127\naI129\naI131\naI132\nasS'size'\np10\nI15\nsb."
p88
sg27
S'I16\n.'
p89
sg29
S'I0\n.'
p90
sg22
S'(lp1\nI9\naI4\naI3\naI6\naI2\naI6\naI8\naI2\naI12\naI12\naI11\naI9\naI9\naI5\naI4\naI4\naI12\naI7\naI9\naI9\naI11\naI7\naI5\naI12\naI8\naI8\naI11\naI2\naI2\naI2\naI12\naI12\na.'
p91
sg24
S'(lp1\nI6\naI6\naI6\naI6\naI6\naI6\naI6\naI6\naI6\naI6\naI6\naI6\naI6\naI6\naI6\naI6\naI6\naI6\naI6\naI6\naI6\naI6\naI6\naI6\naI6\naI6\naI6\naI6\naI6\naI6\naI6\naI6\na.'
p92
sa(dp93
g37
S'(lp1\nI62\naI62\naI69\naI64\naI63\naI64\naI51\naI68\naI65\naI76\naI45\naI57\naI62\naI51\naI74\naI74\naI67\naI52\naI76\naI59\naI72\naI83\naI48\naI53\naI78\naI76\naI77\naI58\naI66\naI58\naI57\naI54\na.'
p94
sg5
S"(iscales\nMidiScale\np1\n(dp2\nS'slave'\np3\n(lp4\nI48\naI50\naI52\naI53\naI55\naI57\naI59\naI60\naI62\naI64\naI65\naI67\naI69\naI71\naI72\nasS'min'\np5\nI48\nsS'max'\np6\nI72\nsS'transposition'\np7\nI0\nsS'master_scale'\np8\n(lp9\nI0\naI2\naI4\naI5\naI7\naI9\naI11\naI12\naI14\naI16\naI17\naI19\naI21\naI23\naI24\naI26\naI28\naI29\naI31\naI33\naI35\naI36\naI38\naI40\naI41\naI43\naI45\naI47\naI48\naI50\naI52\naI53\naI55\naI57\naI59\naI60\naI62\naI64\naI65\naI67\naI69\naI71\naI72\naI74\naI76\naI77\naI79\naI81\naI83\naI84\naI86\naI88\naI89\naI91\naI93\naI95\naI96\naI98\naI100\naI101\naI103\naI105\naI107\naI108\naI110\naI112\naI113\naI115\naI117\naI119\naI120\naI122\naI124\naI125\naI127\naI129\naI131\naI132\nasS'size'\np10\nI15\nsb."
p95
sg27
S'I16\n.'
p96
sg29
S'I0\n.'
p97
sg22
S'(lp1\nI9\naI4\naI3\naI6\naI2\naI6\naI8\naI2\naI12\naI12\naI11\naI9\naI9\naI5\naI4\naI4\naI12\naI7\naI9\naI9\naI11\naI7\naI5\naI12\naI8\naI8\naI11\naI2\naI2\naI2\naI12\naI12\na.'
p98
sg24
S'(lp1\nI6\naI6\naI6\naI6\naI6\naI6\naI6\naI6\naI6\naI6\naI6\naI6\naI6\naI6\naI6\naI6\naI6\naI6\naI6\naI6\naI6\naI6\naI6\naI6\naI6\naI6\naI6\naI6\naI6\naI6\naI6\naI6\na.'
p99
sa(dp100
g37
S'(lp1\nI62\naI62\naI69\naI64\naI63\naI64\naI51\naI68\naI65\naI76\naI45\naI57\naI62\naI51\naI74\naI74\naI67\naI52\naI76\naI59\naI72\naI83\naI48\naI53\naI78\naI76\naI77\naI58\naI66\naI58\naI57\naI54\na.'
p101
sg5
S"(iscales\nMidiScale\np1\n(dp2\nS'slave'\np3\n(lp4\nI48\naI50\naI52\naI53\naI55\naI57\naI59\naI60\naI62\naI64\naI65\naI67\naI69\naI71\naI72\nasS'min'\np5\nI48\nsS'max'\np6\nI72\nsS'transposition'\np7\nI0\nsS'master_scale'\np8\n(lp9\nI0\naI2\naI4\naI5\naI7\naI9\naI11\naI12\naI14\naI16\naI17\naI19\naI21\naI23\naI24\naI26\naI28\naI29\naI31\naI33\naI35\naI36\naI38\naI40\naI41\naI43\naI45\naI47\naI48\naI50\naI52\naI53\naI55\naI57\naI59\naI60\naI62\naI64\naI65\naI67\naI69\naI71\naI72\naI74\naI76\naI77\naI79\naI81\naI83\naI84\naI86\naI88\naI89\naI91\naI93\naI95\naI96\naI98\naI100\naI101\naI103\naI105\naI107\naI108\naI110\naI112\naI113\naI115\naI117\naI119\naI120\naI122\naI124\naI125\naI127\naI129\naI131\naI132\nasS'size'\np10\nI15\nsb."
p102
sg27
S'I16\n.'
p103
sg29
S'I0\n.'
p104
sg22
S'(lp1\nI9\naI4\naI3\naI6\naI2\naI6\naI8\naI2\naI12\naI12\naI11\naI9\naI9\naI5\naI4\naI4\naI12\naI7\naI9\naI9\naI11\naI7\naI5\naI12\naI8\naI8\naI11\naI2\naI2\naI2\naI12\naI12\na.'
p105
sg24
S'(lp1\nI6\naI6\naI6\naI6\naI6\naI6\naI6\naI6\naI6\naI6\naI6\naI6\naI6\naI6\naI6\naI6\naI6\naI6\naI6\naI6\naI6\naI6\naI6\naI6\naI6\naI6\naI6\naI6\naI6\naI6\naI6\naI6\na.'
p106
sa(dp107
g37
S'(lp1\nI62\naI62\naI69\naI64\naI63\naI64\naI51\naI68\naI65\naI76\naI45\naI57\naI62\naI51\naI74\naI74\naI67\naI52\naI76\naI59\naI72\naI83\naI48\naI53\naI78\naI76\naI77\naI58\naI66\naI58\naI57\naI54\na.'
p108
sg5
S"(iscales\nMidiScale\np1\n(dp2\nS'slave'\np3\n(lp4\nI48\naI50\naI52\naI53\naI55\naI57\naI59\naI60\naI62\naI64\naI65\naI67\naI69\naI71\naI72\nasS'min'\np5\nI48\nsS'max'\np6\nI72\nsS'transposition'\np7\nI0\nsS'master_scale'\np8\n(lp9\nI0\naI2\naI4\naI5\naI7\naI9\naI11\naI12\naI14\naI16\naI17\naI19\naI21\naI23\naI24\naI26\naI28\naI29\naI31\naI33\naI35\naI36\naI38\naI40\naI41\naI43\naI45\naI47\naI48\naI50\naI52\naI53\naI55\naI57\naI59\naI60\naI62\naI64\naI65\naI67\naI69\naI71\naI72\naI74\naI76\naI77\naI79\naI81\naI83\naI84\naI86\naI88\naI89\naI91\naI93\naI95\naI96\naI98\naI100\naI101\naI103\naI105\naI107\naI108\naI110\naI112\naI113\naI115\naI117\naI119\naI120\naI122\naI124\naI125\naI127\naI129\naI131\naI132\nasS'size'\np10\nI15\nsb."
p109
sg27
S'I16\n.'
p110
sg29
S'I0\n.'
p111
sg22
S'(lp1\nI9\naI4\naI3\naI6\naI2\naI6\naI8\naI2\naI12\naI12\naI11\naI9\naI9\naI5\naI4\naI4\naI12\naI7\naI9\naI9\naI11\naI7\naI5\naI12\naI8\naI8\naI11\naI2\naI2\naI2\naI12\naI12\na.'
p112
sg24
S'(lp1\nI6\naI6\naI6\naI6\naI6\naI6\naI6\naI6\naI6\naI6\naI6\naI6\naI6\naI6\naI6\naI6\naI6\naI6\naI6\naI6\naI6\naI6\naI6\naI6\naI6\naI6\naI6\naI6\naI6\naI6\naI6\naI6\na.'
p113
sa(dp114
g37
S'(lp1\nI62\naI62\naI69\naI64\naI63\naI64\naI51\naI68\naI65\naI76\naI45\naI57\naI62\naI51\naI74\naI74\naI67\naI52\naI76\naI59\naI72\naI83\naI48\naI53\naI78\naI76\naI77\naI58\naI66\naI58\naI57\naI54\na.'
p115
sg5
S"(iscales\nMidiScale\np1\n(dp2\nS'slave'\np3\n(lp4\nI48\naI50\naI52\naI53\naI55\naI57\naI59\naI60\naI62\naI64\naI65\naI67\naI69\naI71\naI72\nasS'min'\np5\nI48\nsS'max'\np6\nI72\nsS'transposition'\np7\nI0\nsS'master_scale'\np8\n(lp9\nI0\naI2\naI4\naI5\naI7\naI9\naI11\naI12\naI14\naI16\naI17\naI19\naI21\naI23\naI24\naI26\naI28\naI29\naI31\naI33\naI35\naI36\naI38\naI40\naI41\naI43\naI45\naI47\naI48\naI50\naI52\naI53\naI55\naI57\naI59\naI60\naI62\naI64\naI65\naI67\naI69\naI71\naI72\naI74\naI76\naI77\naI79\naI81\naI83\naI84\naI86\naI88\naI89\naI91\naI93\naI95\naI96\naI98\naI100\naI101\naI103\naI105\naI107\naI108\naI110\naI112\naI113\naI115\naI117\naI119\naI120\naI122\naI124\naI125\naI127\naI129\naI131\naI132\nasS'size'\np10\nI15\nsb."
p116
sg27
S'I16\n.'
p117
sg29
S'I0\n.'
p118
sg22
S'(lp1\nI9\naI4\naI3\naI6\naI2\naI6\naI8\naI2\naI12\naI12\naI11\naI9\naI9\naI5\naI4\naI4\naI12\naI7\naI9\naI9\naI11\naI7\naI5\naI12\naI8\naI8\naI11\naI2\naI2\naI2\naI12\naI12\na.'
p119
sg24
S'(lp1\nI6\naI6\naI6\naI6\naI6\naI6\naI6\naI6\naI6\naI6\naI6\naI6\naI6\naI6\naI6\naI6\naI6\naI6\naI6\naI6\naI6\naI6\naI6\naI6\naI6\naI6\naI6\naI6\naI6\naI6\naI6\naI6\na.'
p120
sa(dp121
g37
S'(lp1\nI62\naI62\naI69\naI64\naI63\naI64\naI51\naI68\naI65\naI76\naI45\naI57\naI62\naI51\naI74\naI74\naI67\naI52\naI76\naI59\naI72\naI83\naI48\naI53\naI78\naI76\naI77\naI58\naI66\naI58\naI57\naI54\na.'
p122
sg5
S"(iscales\nMidiScale\np1\n(dp2\nS'slave'\np3\n(lp4\nI48\naI50\naI52\naI53\naI55\naI57\naI59\naI60\naI62\naI64\naI65\naI67\naI69\naI71\naI72\nasS'min'\np5\nI48\nsS'max'\np6\nI72\nsS'transposition'\np7\nI0\nsS'master_scale'\np8\n(lp9\nI0\naI2\naI4\naI5\naI7\naI9\naI11\naI12\naI14\naI16\naI17\naI19\naI21\naI23\naI24\naI26\naI28\naI29\naI31\naI33\naI35\naI36\naI38\naI40\naI41\naI43\naI45\naI47\naI48\naI50\naI52\naI53\naI55\naI57\naI59\naI60\naI62\naI64\naI65\naI67\naI69\naI71\naI72\naI74\naI76\naI77\naI79\naI81\naI83\naI84\naI86\naI88\naI89\naI91\naI93\naI95\naI96\naI98\naI100\naI101\naI103\naI105\naI107\naI108\naI110\naI112\naI113\naI115\naI117\naI119\naI120\naI122\naI124\naI125\naI127\naI129\naI131\naI132\nasS'size'\np10\nI15\nsb."
p123
sg27
S'I16\n.'
p124
sg29
S'I0\n.'
p125
sg22
S'(lp1\nI9\naI4\naI3\naI6\naI2\naI6\naI8\naI2\naI12\naI12\naI11\naI9\naI9\naI5\naI4\naI4\naI12\naI7\naI9\naI9\naI11\naI7\naI5\naI12\naI8\naI8\naI11\naI2\naI2\naI2\naI12\naI12\na.'
p126
sg24
S'(lp1\nI6\naI6\naI6\naI6\naI6\naI6\naI6\naI6\naI6\naI6\naI6\naI6\naI6\naI6\naI6\naI6\naI6\naI6\naI6\naI6\naI6\naI6\naI6\naI6\naI6\naI6\naI6\naI6\naI6\naI6\naI6\naI6\na.'
p127
sa(dp128
g37
S'(lp1\nI62\naI62\naI69\naI64\naI63\naI64\naI51\naI68\naI65\naI76\naI45\naI57\naI62\naI51\naI74\naI74\naI67\naI52\naI76\naI59\naI72\naI83\naI48\naI53\naI78\naI76\naI77\naI58\naI66\naI58\naI57\naI54\na.'
p129
sg5
S"(iscales\nMidiScale\np1\n(dp2\nS'slave'\np3\n(lp4\nI48\naI50\naI52\naI53\naI55\naI57\naI59\naI60\naI62\naI64\naI65\naI67\naI69\naI71\naI72\nasS'min'\np5\nI48\nsS'max'\np6\nI72\nsS'transposition'\np7\nI0\nsS'master_scale'\np8\n(lp9\nI0\naI2\naI4\naI5\naI7\naI9\naI11\naI12\naI14\naI16\naI17\naI19\naI21\naI23\naI24\naI26\naI28\naI29\naI31\naI33\naI35\naI36\naI38\naI40\naI41\naI43\naI45\naI47\naI48\naI50\naI52\naI53\naI55\naI57\naI59\naI60\naI62\naI64\naI65\naI67\naI69\naI71\naI72\naI74\naI76\naI77\naI79\naI81\naI83\naI84\naI86\naI88\naI89\naI91\naI93\naI95\naI96\naI98\naI100\naI101\naI103\naI105\naI107\naI108\naI110\naI112\naI113\naI115\naI117\naI119\naI120\naI122\naI124\naI125\naI127\naI129\naI131\naI132\nasS'size'\np10\nI15\nsb."
p130
sg27
S'I16\n.'
p131
sg29
S'I0\n.'
p132
sg22
S'(lp1\nI9\naI4\naI3\naI6\naI2\naI6\naI8\naI2\naI12\naI12\naI11\naI9\naI9\naI5\naI4\naI4\naI12\naI7\naI9\naI9\naI11\naI7\naI5\naI12\naI8\naI8\naI11\naI2\naI2\naI2\naI12\naI12\na.'
p133
sg24
S'(lp1\nI6\naI6\naI6\naI6\naI6\naI6\naI6\naI6\naI6\naI6\naI6\naI6\naI6\naI6\naI6\naI6\naI6\naI6\naI6\naI6\naI6\naI6\naI6\naI6\naI6\naI6\naI6\naI6\naI6\naI6\naI6\naI6\na.'
p134
sa(dp135
g37
S'(lp1\nI62\naI62\naI69\naI64\naI63\naI64\naI51\naI68\naI65\naI76\naI45\naI57\naI62\naI51\naI74\naI74\naI67\naI52\naI76\naI59\naI72\naI83\naI48\naI53\naI78\naI76\naI77\naI58\naI66\naI58\naI57\naI54\na.'
p136
sg5
S"(iscales\nMidiScale\np1\n(dp2\nS'slave'\np3\n(lp4\nI48\naI50\naI52\naI53\naI55\naI57\naI59\naI60\naI62\naI64\naI65\naI67\naI69\naI71\naI72\nasS'min'\np5\nI48\nsS'max'\np6\nI72\nsS'transposition'\np7\nI0\nsS'master_scale'\np8\n(lp9\nI0\naI2\naI4\naI5\naI7\naI9\naI11\naI12\naI14\naI16\naI17\naI19\naI21\naI23\naI24\naI26\naI28\naI29\naI31\naI33\naI35\naI36\naI38\naI40\naI41\naI43\naI45\naI47\naI48\naI50\naI52\naI53\naI55\naI57\naI59\naI60\naI62\naI64\naI65\naI67\naI69\naI71\naI72\naI74\naI76\naI77\naI79\naI81\naI83\naI84\naI86\naI88\naI89\naI91\naI93\naI95\naI96\naI98\naI100\naI101\naI103\naI105\naI107\naI108\naI110\naI112\naI113\naI115\naI117\naI119\naI120\naI122\naI124\naI125\naI127\naI129\naI131\naI132\nasS'size'\np10\nI15\nsb."
p137
sg27
S'I16\n.'
p138
sg29
S'I0\n.'
p139
sg22
S'(lp1\nI9\naI4\naI3\naI6\naI2\naI6\naI8\naI2\naI12\naI12\naI11\naI9\naI9\naI5\naI4\naI4\naI12\naI7\naI9\naI9\naI11\naI7\naI5\naI12\naI8\naI8\naI11\naI2\naI2\naI2\naI12\naI12\na.'
p140
sg24
S'(lp1\nI6\naI6\naI6\naI6\naI6\naI6\naI6\naI6\naI6\naI6\naI6\naI6\naI6\naI6\naI6\naI6\naI6\naI6\naI6\naI6\naI6\naI6\naI6\naI6\naI6\naI6\naI6\naI6\naI6\naI6\naI6\naI6\na.'
p141
sa(dp142
g37
S'(lp1\nI62\naI62\naI69\naI64\naI63\naI64\naI51\naI68\naI65\naI76\naI45\naI57\naI62\naI51\naI74\naI74\naI67\naI52\naI76\naI59\naI72\naI83\naI48\naI53\naI78\naI76\naI77\naI58\naI66\naI58\naI57\naI54\na.'
p143
sg5
S"(iscales\nMidiScale\np1\n(dp2\nS'slave'\np3\n(lp4\nI48\naI50\naI52\naI53\naI55\naI57\naI59\naI60\naI62\naI64\naI65\naI67\naI69\naI71\naI72\nasS'min'\np5\nI48\nsS'max'\np6\nI72\nsS'transposition'\np7\nI0\nsS'master_scale'\np8\n(lp9\nI0\naI2\naI4\naI5\naI7\naI9\naI11\naI12\naI14\naI16\naI17\naI19\naI21\naI23\naI24\naI26\naI28\naI29\naI31\naI33\naI35\naI36\naI38\naI40\naI41\naI43\naI45\naI47\naI48\naI50\naI52\naI53\naI55\naI57\naI59\naI60\naI62\naI64\naI65\naI67\naI69\naI71\naI72\naI74\naI76\naI77\naI79\naI81\naI83\naI84\naI86\naI88\naI89\naI91\naI93\naI95\naI96\naI98\naI100\naI101\naI103\naI105\naI107\naI108\naI110\naI112\naI113\naI115\naI117\naI119\naI120\naI122\naI124\naI125\naI127\naI129\naI131\naI132\nasS'size'\np10\nI15\nsb."
p144
sg27
S'I16\n.'
p145
sg29
S'I0\n.'
p146
sg22
S'(lp1\nI9\naI4\naI3\naI6\naI2\naI6\naI8\naI2\naI12\naI12\naI11\naI9\naI9\naI5\naI4\naI4\naI12\naI7\naI9\naI9\naI11\naI7\naI5\naI12\naI8\naI8\naI11\naI2\naI2\naI2\naI12\naI12\na.'
p147
sg24
S'(lp1\nI6\naI6\naI6\naI6\naI6\naI6\naI6\naI6\naI6\naI6\naI6\naI6\naI6\naI6\naI6\naI6\naI6\naI6\naI6\naI6\naI6\naI6\naI6\naI6\naI6\naI6\naI6\naI6\naI6\naI6\naI6\naI6\na.'
p148
sasS'old_note'
p149
I43
sS'MYGROUP'
p150
S'225.0.0.250'
p151
sS'trigger_count'
p152
I5
sS'step'
p153
I4
sS'vol_depth'
p154
I20
sS'note_repeat'
p155
I0
sS'note_index'
p156
I5
sg37
(lp157
I79
aI73
aI61
aI82
aI60
aI46
aI48
aI53
aI57
aI51
aI84
aI74
aI60
aI83
aI72
aI48
aI50
aI81
aI45
aI46
aI76
aI66
aI63
aI71
aI62
aI66
aI84
aI46
aI75
aI76
aI53
aI69
asS'vol_noise'
p158
g33
sS'open_port_exists'
p159
I01
sS'sp'
p160
I0
sS'vol_autocounter'
p161
I0
sS'note_tie'
p162
I0
sbsS'x'
(i__main__
Pystepseq
p163
(dp164
g4
I5
sg5
(iscales
MidiScale
p165
(dp166
g8
(lp167
I36
aI37
aI38
aI44
aI45
aI46
aI47
asg10
I36
sg11
I60
sg12
I0
sg13
(lp168
I36
aI37
aI38
aI44
aI45
aI46
aI47
asg15
I7
sbsg16
I0
sg17
I45
sg18
I6
sg19
I8123
sg20
I32
sg21
I0
sg22
(lp169
I6
aI7
aI2
aI6
aI6
aI1
aI2
aI5
aI2
aI5
aI2
aI3
aI4
aI6
aI2
aI2
aI6
aI2
aI3
aI1
aI1
aI2
aI2
aI6
aI6
aI7
aI1
aI4
aI1
aI0
aI2
aI5
asg24
(lp170
I6
aI6
aI6
aI12
aI12
aI12
aI12
aI6
aI6
aI6
aI6
aI6
asg26
I1
sg27
I12
sg28
I1
sg29
I9
sg30
I38
sg31
I1
sg32
g33
sg34
(lp171
(dp172
g37
S'(lp1\nI70\naI66\naI77\naI66\naI53\naI80\naI76\naI73\naI73\naI76\naI48\naI51\naI72\naI46\naI71\naI78\naI52\naI53\naI70\naI57\naI52\naI59\naI73\naI49\naI60\naI60\naI83\naI63\naI83\naI82\naI57\naI65\na.'
p173
sg5
S"(iscales\nMidiScale\np1\n(dp2\nS'slave'\np3\n(lp4\nI48\naI50\naI52\naI53\naI55\naI57\naI59\naI60\naI62\naI64\naI65\naI67\naI69\naI71\naI72\nasS'min'\np5\nI48\nsS'max'\np6\nI72\nsS'transposition'\np7\nI0\nsS'master_scale'\np8\n(lp9\nI0\naI2\naI4\naI5\naI7\naI9\naI11\naI12\naI14\naI16\naI17\naI19\naI21\naI23\naI24\naI26\naI28\naI29\naI31\naI33\naI35\naI36\naI38\naI40\naI41\naI43\naI45\naI47\naI48\naI50\naI52\naI53\naI55\naI57\naI59\naI60\naI62\naI64\naI65\naI67\naI69\naI71\naI72\naI74\naI76\naI77\naI79\naI81\naI83\naI84\naI86\naI88\naI89\naI91\naI93\naI95\naI96\naI98\naI100\naI101\naI103\naI105\naI107\naI108\naI110\naI112\naI113\naI115\naI117\naI119\naI120\naI122\naI124\naI125\naI127\naI129\naI131\naI132\nasS'size'\np10\nI15\nsb."
p174
sg27
S'I16\n.'
p175
sg29
S'I0\n.'
p176
sg22
S'(lp1\nI3\naI12\naI9\naI10\naI10\naI8\naI7\naI12\naI7\naI10\naI2\naI6\naI8\naI8\naI2\naI8\naI7\naI2\naI9\naI11\naI4\naI12\naI6\naI3\naI10\naI5\naI12\naI2\naI3\naI7\naI9\naI8\na.'
p177
sg24
S'(lp1\nI6\naI6\naI6\naI6\naI6\naI6\naI6\naI6\naI6\naI6\naI6\naI6\naI6\naI6\naI6\naI6\naI6\naI6\naI6\naI6\naI6\naI6\naI6\naI6\naI6\naI6\naI6\naI6\naI6\naI6\naI6\naI6\na.'
p178
sa(dp179
g37
S'(lp1\nI56\naI72\naI54\naI50\naI63\naI58\naI63\naI80\naI55\naI59\naI51\naI57\naI65\naI82\naI59\naI81\naI66\naI83\naI72\naI65\naI69\naI57\naI67\naI49\naI63\naI46\naI54\naI64\naI50\naI81\naI59\naI60\na.'
p180
sg5
S"(iscales\nMidiScale\np1\n(dp2\nS'slave'\np3\n(lp4\nI36\naI37\naI38\naI44\naI45\naI46\naI47\nasS'min'\np5\nI36\nsS'max'\np6\nI60\nsS'transposition'\np7\nI0\nsS'master_scale'\np8\n(lp9\nI36\naI37\naI38\naI44\naI45\naI46\naI47\nasS'size'\np10\nI7\nsb."
p181
sg27
S'I11\n.'
p182
sg29
S'I9\n.'
p183
sg22
S'(lp1\nI7\naI0\naI0\naI0\naI2\naI6\naI5\naI3\naI1\naI2\naI3\naI1\naI0\naI4\naI1\naI6\naI2\naI1\naI2\naI5\naI4\naI2\naI0\naI4\naI4\naI1\naI3\naI1\naI2\naI6\naI4\naI3\na.'
p184
sg24
S'(lp1\nI12\naI6\naI6\naI12\naI6\naI6\naI18\naI6\naI12\naI6\naI6\na.'
p185
sa(dp186
g37
S'(lp1\nI59\naI81\naI60\naI77\naI57\naI62\naI56\naI64\naI67\naI70\naI57\naI69\naI57\naI78\naI68\naI48\naI59\naI70\naI59\naI65\naI56\naI70\naI55\naI46\naI44\naI49\naI66\naI76\naI78\naI54\naI72\naI66\na.'
p187
sg5
S"(iscales\nMidiScale\np1\n(dp2\nS'slave'\np3\n(lp4\nI36\naI37\naI38\naI44\naI45\naI46\naI47\nasS'min'\np5\nI36\nsS'max'\np6\nI60\nsS'transposition'\np7\nI0\nsS'master_scale'\np8\n(lp9\nI36\naI37\naI38\naI44\naI45\naI46\naI47\nasS'size'\np10\nI7\nsb."
p188
sg27
S'I8\n.'
p189
sg29
S'I9\n.'
p190
sg22
S'(lp1\nI6\naI5\naI6\naI2\naI6\naI2\naI3\naI4\naI4\naI4\naI1\naI2\naI6\naI6\naI2\naI1\naI6\naI0\naI1\naI7\naI6\naI7\naI6\naI2\naI5\naI1\naI1\naI3\naI3\naI2\naI3\naI1\na.'
p191
sg24
S'(lp1\nI12\naI6\naI18\naI12\naI6\naI24\naI12\naI6\na.'
p192
sa(dp193
g37
S'(lp1\nI55\naI61\naI52\naI51\naI82\naI71\naI50\naI83\naI65\naI63\naI83\naI63\naI58\naI68\naI68\naI77\naI67\naI67\naI54\naI71\naI75\naI82\naI69\naI75\naI55\naI63\naI44\naI77\naI82\naI53\naI66\naI67\na.'
p194
sg5
S"(iscales\nMidiScale\np1\n(dp2\nS'slave'\np3\n(lp4\nI36\naI37\naI38\naI44\naI45\naI46\naI47\nasS'min'\np5\nI36\nsS'max'\np6\nI60\nsS'transposition'\np7\nI0\nsS'master_scale'\np8\n(lp9\nI36\naI37\naI38\naI44\naI45\naI46\naI47\nasS'size'\np10\nI7\nsb."
p195
sg27
S'I11\n.'
p196
sg29
S'I9\n.'
p197
sg22
S'(lp1\nI3\naI2\naI2\naI6\naI6\naI5\naI1\naI6\naI2\naI1\naI1\naI2\naI1\naI5\naI6\naI0\naI2\naI1\naI6\naI1\naI2\naI1\naI4\naI4\naI2\naI6\naI1\naI1\naI4\naI6\naI1\naI1\na.'
p198
sg24
S'(lp1\nI6\naI18\naI6\naI12\naI6\naI6\naI6\naI6\naI12\naI12\naI6\na.'
p199
sa(dp200
g37
S'(lp1\nI46\naI82\naI75\naI84\naI80\naI45\naI52\naI63\naI79\naI71\naI55\naI50\naI67\naI56\naI44\naI55\naI68\naI72\naI53\naI48\naI46\naI63\naI79\naI70\naI75\naI63\naI68\naI51\naI81\naI78\naI67\naI49\na.'
p201
sg5
S"(iscales\nMidiScale\np1\n(dp2\nS'slave'\np3\n(lp4\nI36\naI37\naI38\naI44\naI45\naI46\naI47\nasS'min'\np5\nI36\nsS'max'\np6\nI60\nsS'transposition'\np7\nI0\nsS'master_scale'\np8\n(lp9\nI36\naI37\naI38\naI44\naI45\naI46\naI47\nasS'size'\np10\nI7\nsb."
p202
sg27
S'I10\n.'
p203
sg29
S'I9\n.'
p204
sg22
S'(lp1\nI2\naI0\naI3\naI2\naI2\naI0\naI3\naI3\naI6\naI1\naI7\naI0\naI0\naI0\naI0\naI6\naI1\naI1\naI6\naI2\naI6\naI1\naI2\naI5\naI3\naI2\naI5\naI1\naI0\naI2\naI1\naI7\na.'
p205
sg24
S'(lp1\nI6\naI6\naI6\naI6\naI18\naI18\naI6\naI12\naI6\naI12\na.'
p206
sa(dp207
g37
S'(lp1\nI64\naI78\naI45\naI74\naI53\naI60\naI64\naI84\naI84\naI80\naI70\naI77\naI62\naI71\naI84\naI58\naI51\naI53\naI84\naI44\naI51\naI81\naI74\naI75\naI77\naI62\naI61\naI44\naI55\naI69\naI81\naI64\na.'
p208
sg5
S"(iscales\nMidiScale\np1\n(dp2\nS'slave'\np3\n(lp4\nI36\naI37\naI38\naI44\naI45\naI46\naI47\nasS'min'\np5\nI36\nsS'max'\np6\nI60\nsS'transposition'\np7\nI0\nsS'master_scale'\np8\n(lp9\nI36\naI37\naI38\naI44\naI45\naI46\naI47\nasS'size'\np10\nI7\nsb."
p209
sg27
S'I11\n.'
p210
sg29
S'I9\n.'
p211
sg22
S'(lp1\nI2\naI6\naI4\naI6\naI1\naI7\naI5\naI0\naI2\naI1\naI5\naI6\naI4\naI4\naI1\naI1\naI4\naI6\naI7\naI2\naI5\naI1\naI2\naI1\naI6\naI3\naI1\naI2\naI1\naI2\naI5\naI2\na.'
p212
sg24
S'(lp1\nI6\naI12\naI12\naI12\naI18\naI6\naI6\naI6\naI6\naI6\naI6\na.'
p213
sa(dp214
g37
S'(lp1\nI74\naI58\naI49\naI51\naI61\naI50\naI56\naI77\naI45\naI50\naI53\naI47\naI67\naI72\naI79\naI73\naI45\naI77\naI50\naI46\naI68\naI84\naI84\naI77\naI74\naI82\naI44\naI84\naI58\naI71\naI49\naI61\na.'
p215
sg5
S"(iscales\nMidiScale\np1\n(dp2\nS'slave'\np3\n(lp4\nI36\naI37\naI38\naI44\naI45\naI46\naI47\nasS'min'\np5\nI36\nsS'max'\np6\nI60\nsS'transposition'\np7\nI0\nsS'master_scale'\np8\n(lp9\nI36\naI37\naI38\naI44\naI45\naI46\naI47\nasS'size'\np10\nI7\nsb."
p216
sg27
S'I12\n.'
p217
sg29
S'I9\n.'
p218
sg22
S'(lp1\nI6\naI7\naI2\naI6\naI6\naI1\naI2\naI5\naI2\naI5\naI2\naI3\naI4\naI6\naI2\naI2\naI6\naI2\naI3\naI1\naI1\naI2\naI2\naI6\naI6\naI7\naI1\naI4\naI1\naI0\naI2\naI5\na.'
p219
sg24
S'(lp1\nI6\naI6\naI6\naI12\naI12\naI12\naI12\naI6\naI6\naI6\naI6\naI6\na.'
p220
sa(dp221
g37
S'(lp1\nI70\naI66\naI77\naI66\naI53\naI80\naI76\naI73\naI73\naI76\naI48\naI51\naI72\naI46\naI71\naI78\naI52\naI53\naI70\naI57\naI52\naI59\naI73\naI49\naI60\naI60\naI83\naI63\naI83\naI82\naI57\naI65\na.'
p222
sg5
S"(iscales\nMidiScale\np1\n(dp2\nS'slave'\np3\n(lp4\nI48\naI50\naI52\naI53\naI55\naI57\naI59\naI60\naI62\naI64\naI65\naI67\naI69\naI71\naI72\nasS'min'\np5\nI48\nsS'max'\np6\nI72\nsS'transposition'\np7\nI0\nsS'master_scale'\np8\n(lp9\nI0\naI2\naI4\naI5\naI7\naI9\naI11\naI12\naI14\naI16\naI17\naI19\naI21\naI23\naI24\naI26\naI28\naI29\naI31\naI33\naI35\naI36\naI38\naI40\naI41\naI43\naI45\naI47\naI48\naI50\naI52\naI53\naI55\naI57\naI59\naI60\naI62\naI64\naI65\naI67\naI69\naI71\naI72\naI74\naI76\naI77\naI79\naI81\naI83\naI84\naI86\naI88\naI89\naI91\naI93\naI95\naI96\naI98\naI100\naI101\naI103\naI105\naI107\naI108\naI110\naI112\naI113\naI115\naI117\naI119\naI120\naI122\naI124\naI125\naI127\naI129\naI131\naI132\nasS'size'\np10\nI15\nsb."
p223
sg27
S'I16\n.'
p224
sg29
S'I0\n.'
p225
sg22
S'(lp1\nI3\naI12\naI9\naI10\naI10\naI8\naI7\naI12\naI7\naI10\naI2\naI6\naI8\naI8\naI2\naI8\naI7\naI2\naI9\naI11\naI4\naI12\naI6\naI3\naI10\naI5\naI12\naI2\naI3\naI7\naI9\naI8\na.'
p226
sg24
S'(lp1\nI6\naI6\naI6\naI6\naI6\naI6\naI6\naI6\naI6\naI6\naI6\naI6\naI6\naI6\naI6\naI6\naI6\naI6\naI6\naI6\naI6\naI6\naI6\naI6\naI6\naI6\naI6\naI6\naI6\naI6\naI6\naI6\na.'
p227
sa(dp228
g37
S'(lp1\nI70\naI66\naI77\naI66\naI53\naI80\naI76\naI73\naI73\naI76\naI48\naI51\naI72\naI46\naI71\naI78\naI52\naI53\naI70\naI57\naI52\naI59\naI73\naI49\naI60\naI60\naI83\naI63\naI83\naI82\naI57\naI65\na.'
p229
sg5
S"(iscales\nMidiScale\np1\n(dp2\nS'slave'\np3\n(lp4\nI48\naI50\naI52\naI53\naI55\naI57\naI59\naI60\naI62\naI64\naI65\naI67\naI69\naI71\naI72\nasS'min'\np5\nI48\nsS'max'\np6\nI72\nsS'transposition'\np7\nI0\nsS'master_scale'\np8\n(lp9\nI0\naI2\naI4\naI5\naI7\naI9\naI11\naI12\naI14\naI16\naI17\naI19\naI21\naI23\naI24\naI26\naI28\naI29\naI31\naI33\naI35\naI36\naI38\naI40\naI41\naI43\naI45\naI47\naI48\naI50\naI52\naI53\naI55\naI57\naI59\naI60\naI62\naI64\naI65\naI67\naI69\naI71\naI72\naI74\naI76\naI77\naI79\naI81\naI83\naI84\naI86\naI88\naI89\naI91\naI93\naI95\naI96\naI98\naI100\naI101\naI103\naI105\naI107\naI108\naI110\naI112\naI113\naI115\naI117\naI119\naI120\naI122\naI124\naI125\naI127\naI129\naI131\naI132\nasS'size'\np10\nI15\nsb."
p230
sg27
S'I16\n.'
p231
sg29
S'I0\n.'
p232
sg22
S'(lp1\nI3\naI12\naI9\naI10\naI10\naI8\naI7\naI12\naI7\naI10\naI2\naI6\naI8\naI8\naI2\naI8\naI7\naI2\naI9\naI11\naI4\naI12\naI6\naI3\naI10\naI5\naI12\naI2\naI3\naI7\naI9\naI8\na.'
p233
sg24
S'(lp1\nI6\naI6\naI6\naI6\naI6\naI6\naI6\naI6\naI6\naI6\naI6\naI6\naI6\naI6\naI6\naI6\naI6\naI6\naI6\naI6\naI6\naI6\naI6\naI6\naI6\naI6\naI6\naI6\naI6\naI6\naI6\naI6\na.'
p234
sa(dp235
g37
S'(lp1\nI70\naI66\naI77\naI66\naI53\naI80\naI76\naI73\naI73\naI76\naI48\naI51\naI72\naI46\naI71\naI78\naI52\naI53\naI70\naI57\naI52\naI59\naI73\naI49\naI60\naI60\naI83\naI63\naI83\naI82\naI57\naI65\na.'
p236
sg5
S"(iscales\nMidiScale\np1\n(dp2\nS'slave'\np3\n(lp4\nI48\naI50\naI52\naI53\naI55\naI57\naI59\naI60\naI62\naI64\naI65\naI67\naI69\naI71\naI72\nasS'min'\np5\nI48\nsS'max'\np6\nI72\nsS'transposition'\np7\nI0\nsS'master_scale'\np8\n(lp9\nI0\naI2\naI4\naI5\naI7\naI9\naI11\naI12\naI14\naI16\naI17\naI19\naI21\naI23\naI24\naI26\naI28\naI29\naI31\naI33\naI35\naI36\naI38\naI40\naI41\naI43\naI45\naI47\naI48\naI50\naI52\naI53\naI55\naI57\naI59\naI60\naI62\naI64\naI65\naI67\naI69\naI71\naI72\naI74\naI76\naI77\naI79\naI81\naI83\naI84\naI86\naI88\naI89\naI91\naI93\naI95\naI96\naI98\naI100\naI101\naI103\naI105\naI107\naI108\naI110\naI112\naI113\naI115\naI117\naI119\naI120\naI122\naI124\naI125\naI127\naI129\naI131\naI132\nasS'size'\np10\nI15\nsb."
p237
sg27
S'I16\n.'
p238
sg29
S'I0\n.'
p239
sg22
S'(lp1\nI3\naI12\naI9\naI10\naI10\naI8\naI7\naI12\naI7\naI10\naI2\naI6\naI8\naI8\naI2\naI8\naI7\naI2\naI9\naI11\naI4\naI12\naI6\naI3\naI10\naI5\naI12\naI2\naI3\naI7\naI9\naI8\na.'
p240
sg24
S'(lp1\nI6\naI6\naI6\naI6\naI6\naI6\naI6\naI6\naI6\naI6\naI6\naI6\naI6\naI6\naI6\naI6\naI6\naI6\naI6\naI6\naI6\naI6\naI6\naI6\naI6\naI6\naI6\naI6\naI6\naI6\naI6\naI6\na.'
p241
sa(dp242
g37
S'(lp1\nI70\naI66\naI77\naI66\naI53\naI80\naI76\naI73\naI73\naI76\naI48\naI51\naI72\naI46\naI71\naI78\naI52\naI53\naI70\naI57\naI52\naI59\naI73\naI49\naI60\naI60\naI83\naI63\naI83\naI82\naI57\naI65\na.'
p243
sg5
S"(iscales\nMidiScale\np1\n(dp2\nS'slave'\np3\n(lp4\nI48\naI50\naI52\naI53\naI55\naI57\naI59\naI60\naI62\naI64\naI65\naI67\naI69\naI71\naI72\nasS'min'\np5\nI48\nsS'max'\np6\nI72\nsS'transposition'\np7\nI0\nsS'master_scale'\np8\n(lp9\nI0\naI2\naI4\naI5\naI7\naI9\naI11\naI12\naI14\naI16\naI17\naI19\naI21\naI23\naI24\naI26\naI28\naI29\naI31\naI33\naI35\naI36\naI38\naI40\naI41\naI43\naI45\naI47\naI48\naI50\naI52\naI53\naI55\naI57\naI59\naI60\naI62\naI64\naI65\naI67\naI69\naI71\naI72\naI74\naI76\naI77\naI79\naI81\naI83\naI84\naI86\naI88\naI89\naI91\naI93\naI95\naI96\naI98\naI100\naI101\naI103\naI105\naI107\naI108\naI110\naI112\naI113\naI115\naI117\naI119\naI120\naI122\naI124\naI125\naI127\naI129\naI131\naI132\nasS'size'\np10\nI15\nsb."
p244
sg27
S'I16\n.'
p245
sg29
S'I0\n.'
p246
sg22
S'(lp1\nI3\naI12\naI9\naI10\naI10\naI8\naI7\naI12\naI7\naI10\naI2\naI6\naI8\naI8\naI2\naI8\naI7\naI2\naI9\naI11\naI4\naI12\naI6\naI3\naI10\naI5\naI12\naI2\naI3\naI7\naI9\naI8\na.'
p247
sg24
S'(lp1\nI6\naI6\naI6\naI6\naI6\naI6\naI6\naI6\naI6\naI6\naI6\naI6\naI6\naI6\naI6\naI6\naI6\naI6\naI6\naI6\naI6\naI6\naI6\naI6\naI6\naI6\naI6\naI6\naI6\naI6\naI6\naI6\na.'
p248
sa(dp249
g37
S'(lp1\nI70\naI66\naI77\naI66\naI53\naI80\naI76\naI73\naI73\naI76\naI48\naI51\naI72\naI46\naI71\naI78\naI52\naI53\naI70\naI57\naI52\naI59\naI73\naI49\naI60\naI60\naI83\naI63\naI83\naI82\naI57\naI65\na.'
p250
sg5
S"(iscales\nMidiScale\np1\n(dp2\nS'slave'\np3\n(lp4\nI48\naI50\naI52\naI53\naI55\naI57\naI59\naI60\naI62\naI64\naI65\naI67\naI69\naI71\naI72\nasS'min'\np5\nI48\nsS'max'\np6\nI72\nsS'transposition'\np7\nI0\nsS'master_scale'\np8\n(lp9\nI0\naI2\naI4\naI5\naI7\naI9\naI11\naI12\naI14\naI16\naI17\naI19\naI21\naI23\naI24\naI26\naI28\naI29\naI31\naI33\naI35\naI36\naI38\naI40\naI41\naI43\naI45\naI47\naI48\naI50\naI52\naI53\naI55\naI57\naI59\naI60\naI62\naI64\naI65\naI67\naI69\naI71\naI72\naI74\naI76\naI77\naI79\naI81\naI83\naI84\naI86\naI88\naI89\naI91\naI93\naI95\naI96\naI98\naI100\naI101\naI103\naI105\naI107\naI108\naI110\naI112\naI113\naI115\naI117\naI119\naI120\naI122\naI124\naI125\naI127\naI129\naI131\naI132\nasS'size'\np10\nI15\nsb."
p251
sg27
S'I16\n.'
p252
sg29
S'I0\n.'
p253
sg22
S'(lp1\nI3\naI12\naI9\naI10\naI10\naI8\naI7\naI12\naI7\naI10\naI2\naI6\naI8\naI8\naI2\naI8\naI7\naI2\naI9\naI11\naI4\naI12\naI6\naI3\naI10\naI5\naI12\naI2\naI3\naI7\naI9\naI8\na.'
p254
sg24
S'(lp1\nI6\naI6\naI6\naI6\naI6\naI6\naI6\naI6\naI6\naI6\naI6\naI6\naI6\naI6\naI6\naI6\naI6\naI6\naI6\naI6\naI6\naI6\naI6\naI6\naI6\naI6\naI6\naI6\naI6\naI6\naI6\naI6\na.'
p255
sa(dp256
g37
S'(lp1\nI70\naI66\naI77\naI66\naI53\naI80\naI76\naI73\naI73\naI76\naI48\naI51\naI72\naI46\naI71\naI78\naI52\naI53\naI70\naI57\naI52\naI59\naI73\naI49\naI60\naI60\naI83\naI63\naI83\naI82\naI57\naI65\na.'
p257
sg5
S"(iscales\nMidiScale\np1\n(dp2\nS'slave'\np3\n(lp4\nI48\naI50\naI52\naI53\naI55\naI57\naI59\naI60\naI62\naI64\naI65\naI67\naI69\naI71\naI72\nasS'min'\np5\nI48\nsS'max'\np6\nI72\nsS'transposition'\np7\nI0\nsS'master_scale'\np8\n(lp9\nI0\naI2\naI4\naI5\naI7\naI9\naI11\naI12\naI14\naI16\naI17\naI19\naI21\naI23\naI24\naI26\naI28\naI29\naI31\naI33\naI35\naI36\naI38\naI40\naI41\naI43\naI45\naI47\naI48\naI50\naI52\naI53\naI55\naI57\naI59\naI60\naI62\naI64\naI65\naI67\naI69\naI71\naI72\naI74\naI76\naI77\naI79\naI81\naI83\naI84\naI86\naI88\naI89\naI91\naI93\naI95\naI96\naI98\naI100\naI101\naI103\naI105\naI107\naI108\naI110\naI112\naI113\naI115\naI117\naI119\naI120\naI122\naI124\naI125\naI127\naI129\naI131\naI132\nasS'size'\np10\nI15\nsb."
p258
sg27
S'I16\n.'
p259
sg29
S'I0\n.'
p260
sg22
S'(lp1\nI3\naI12\naI9\naI10\naI10\naI8\naI7\naI12\naI7\naI10\naI2\naI6\naI8\naI8\naI2\naI8\naI7\naI2\naI9\naI11\naI4\naI12\naI6\naI3\naI10\naI5\naI12\naI2\naI3\naI7\naI9\naI8\na.'
p261
sg24
S'(lp1\nI6\naI6\naI6\naI6\naI6\naI6\naI6\naI6\naI6\naI6\naI6\naI6\naI6\naI6\naI6\naI6\naI6\naI6\naI6\naI6\naI6\naI6\naI6\naI6\naI6\naI6\naI6\naI6\naI6\naI6\naI6\naI6\na.'
p262
sa(dp263
g37
S'(lp1\nI70\naI66\naI77\naI66\naI53\naI80\naI76\naI73\naI73\naI76\naI48\naI51\naI72\naI46\naI71\naI78\naI52\naI53\naI70\naI57\naI52\naI59\naI73\naI49\naI60\naI60\naI83\naI63\naI83\naI82\naI57\naI65\na.'
p264
sg5
S"(iscales\nMidiScale\np1\n(dp2\nS'slave'\np3\n(lp4\nI48\naI50\naI52\naI53\naI55\naI57\naI59\naI60\naI62\naI64\naI65\naI67\naI69\naI71\naI72\nasS'min'\np5\nI48\nsS'max'\np6\nI72\nsS'transposition'\np7\nI0\nsS'master_scale'\np8\n(lp9\nI0\naI2\naI4\naI5\naI7\naI9\naI11\naI12\naI14\naI16\naI17\naI19\naI21\naI23\naI24\naI26\naI28\naI29\naI31\naI33\naI35\naI36\naI38\naI40\naI41\naI43\naI45\naI47\naI48\naI50\naI52\naI53\naI55\naI57\naI59\naI60\naI62\naI64\naI65\naI67\naI69\naI71\naI72\naI74\naI76\naI77\naI79\naI81\naI83\naI84\naI86\naI88\naI89\naI91\naI93\naI95\naI96\naI98\naI100\naI101\naI103\naI105\naI107\naI108\naI110\naI112\naI113\naI115\naI117\naI119\naI120\naI122\naI124\naI125\naI127\naI129\naI131\naI132\nasS'size'\np10\nI15\nsb."
p265
sg27
S'I16\n.'
p266
sg29
S'I0\n.'
p267
sg22
S'(lp1\nI3\naI12\naI9\naI10\naI10\naI8\naI7\naI12\naI7\naI10\naI2\naI6\naI8\naI8\naI2\naI8\naI7\naI2\naI9\naI11\naI4\naI12\naI6\naI3\naI10\naI5\naI12\naI2\naI3\naI7\naI9\naI8\na.'
p268
sg24
S'(lp1\nI6\naI6\naI6\naI6\naI6\naI6\naI6\naI6\naI6\naI6\naI6\naI6\naI6\naI6\naI6\naI6\naI6\naI6\naI6\naI6\naI6\naI6\naI6\naI6\naI6\naI6\naI6\naI6\naI6\naI6\naI6\naI6\na.'
p269
sa(dp270
g37
S'(lp1\nI70\naI66\naI77\naI66\naI53\naI80\naI76\naI73\naI73\naI76\naI48\naI51\naI72\naI46\naI71\naI78\naI52\naI53\naI70\naI57\naI52\naI59\naI73\naI49\naI60\naI60\naI83\naI63\naI83\naI82\naI57\naI65\na.'
p271
sg5
S"(iscales\nMidiScale\np1\n(dp2\nS'slave'\np3\n(lp4\nI48\naI50\naI52\naI53\naI55\naI57\naI59\naI60\naI62\naI64\naI65\naI67\naI69\naI71\naI72\nasS'min'\np5\nI48\nsS'max'\np6\nI72\nsS'transposition'\np7\nI0\nsS'master_scale'\np8\n(lp9\nI0\naI2\naI4\naI5\naI7\naI9\naI11\naI12\naI14\naI16\naI17\naI19\naI21\naI23\naI24\naI26\naI28\naI29\naI31\naI33\naI35\naI36\naI38\naI40\naI41\naI43\naI45\naI47\naI48\naI50\naI52\naI53\naI55\naI57\naI59\naI60\naI62\naI64\naI65\naI67\naI69\naI71\naI72\naI74\naI76\naI77\naI79\naI81\naI83\naI84\naI86\naI88\naI89\naI91\naI93\naI95\naI96\naI98\naI100\naI101\naI103\naI105\naI107\naI108\naI110\naI112\naI113\naI115\naI117\naI119\naI120\naI122\naI124\naI125\naI127\naI129\naI131\naI132\nasS'size'\np10\nI15\nsb."
p272
sg27
S'I16\n.'
p273
sg29
S'I0\n.'
p274
sg22
S'(lp1\nI3\naI12\naI9\naI10\naI10\naI8\naI7\naI12\naI7\naI10\naI2\naI6\naI8\naI8\naI2\naI8\naI7\naI2\naI9\naI11\naI4\naI12\naI6\naI3\naI10\naI5\naI12\naI2\naI3\naI7\naI9\naI8\na.'
p275
sg24
S'(lp1\nI6\naI6\naI6\naI6\naI6\naI6\naI6\naI6\naI6\naI6\naI6\naI6\naI6\naI6\naI6\naI6\naI6\naI6\naI6\naI6\naI6\naI6\naI6\naI6\naI6\naI6\naI6\naI6\naI6\naI6\naI6\naI6\na.'
p276
sa(dp277
g37
S'(lp1\nI70\naI66\naI77\naI66\naI53\naI80\naI76\naI73\naI73\naI76\naI48\naI51\naI72\naI46\naI71\naI78\naI52\naI53\naI70\naI57\naI52\naI59\naI73\naI49\naI60\naI60\naI83\naI63\naI83\naI82\naI57\naI65\na.'
p278
sg5
S"(iscales\nMidiScale\np1\n(dp2\nS'slave'\np3\n(lp4\nI48\naI50\naI52\naI53\naI55\naI57\naI59\naI60\naI62\naI64\naI65\naI67\naI69\naI71\naI72\nasS'min'\np5\nI48\nsS'max'\np6\nI72\nsS'transposition'\np7\nI0\nsS'master_scale'\np8\n(lp9\nI0\naI2\naI4\naI5\naI7\naI9\naI11\naI12\naI14\naI16\naI17\naI19\naI21\naI23\naI24\naI26\naI28\naI29\naI31\naI33\naI35\naI36\naI38\naI40\naI41\naI43\naI45\naI47\naI48\naI50\naI52\naI53\naI55\naI57\naI59\naI60\naI62\naI64\naI65\naI67\naI69\naI71\naI72\naI74\naI76\naI77\naI79\naI81\naI83\naI84\naI86\naI88\naI89\naI91\naI93\naI95\naI96\naI98\naI100\naI101\naI103\naI105\naI107\naI108\naI110\naI112\naI113\naI115\naI117\naI119\naI120\naI122\naI124\naI125\naI127\naI129\naI131\naI132\nasS'size'\np10\nI15\nsb."
p279
sg27
S'I16\n.'
p280
sg29
S'I0\n.'
p281
sg22
S'(lp1\nI3\naI12\naI9\naI10\naI10\naI8\naI7\naI12\naI7\naI10\naI2\naI6\naI8\naI8\naI2\naI8\naI7\naI2\naI9\naI11\naI4\naI12\naI6\naI3\naI10\naI5\naI12\naI2\naI3\naI7\naI9\naI8\na.'
p282
sg24
S'(lp1\nI6\naI6\naI6\naI6\naI6\naI6\naI6\naI6\naI6\naI6\naI6\naI6\naI6\naI6\naI6\naI6\naI6\naI6\naI6\naI6\naI6\naI6\naI6\naI6\naI6\naI6\naI6\naI6\naI6\naI6\naI6\naI6\na.'
p283
sasg149
I38
sg150
g151
sg152
I5
sg153
I8
sg154
I20
sg155
I0
sg156
I2
sg37
(lp284
I74
aI58
aI49
aI51
aI61
aI50
aI56
aI77
aI45
aI50
aI53
aI47
aI67
aI72
aI79
aI73
aI45
aI77
aI50
aI46
aI68
aI84
aI84
aI77
aI74
aI82
aI44
aI84
aI58
aI71
aI49
aI61
asg158
g33
sg159
I01
sg160
I0
sg161
I0
sg162
I0
sbsS'z'
(i__main__
Pystepseq
p285
(dp286
g4
I5
sg5
(iscales
MidiScale
p287
(dp288
g8
(lp289
I36
aI37
aI38
aI44
aI45
aI46
aI47
asg10
I36
sg11
I60
sg12
I0
sg13
(lp290
I36
aI37
aI38
aI44
aI45
aI46
aI47
asg15
I7
sbsg16
I0
sg17
I84
sg18
I24
sg19
I8123
sg20
I32
sg21
I0
sg22
(lp291
I0
asg24
(lp292
I24
asg26
I1
sg27
I16
sg28
I1
sg29
I9
sg30
I36
sg31
I1
sg32
g33
sg34
(lp293
(dp294
g37
S'(lp1\nI60\naI57\naI73\naI72\naI73\naI79\naI51\naI76\naI46\naI70\naI49\naI59\naI71\naI72\naI57\naI84\naI73\naI47\naI47\naI70\naI63\naI44\naI57\naI69\naI54\naI64\naI77\naI64\naI45\naI74\naI76\naI77\na.'
p295
sg5
S"(iscales\nMidiScale\np1\n(dp2\nS'slave'\np3\n(lp4\nI48\naI50\naI52\naI53\naI55\naI57\naI59\naI60\naI62\naI64\naI65\naI67\naI69\naI71\naI72\nasS'min'\np5\nI48\nsS'max'\np6\nI72\nsS'transposition'\np7\nI0\nsS'master_scale'\np8\n(lp9\nI0\naI2\naI4\naI5\naI7\naI9\naI11\naI12\naI14\naI16\naI17\naI19\naI21\naI23\naI24\naI26\naI28\naI29\naI31\naI33\naI35\naI36\naI38\naI40\naI41\naI43\naI45\naI47\naI48\naI50\naI52\naI53\naI55\naI57\naI59\naI60\naI62\naI64\naI65\naI67\naI69\naI71\naI72\naI74\naI76\naI77\naI79\naI81\naI83\naI84\naI86\naI88\naI89\naI91\naI93\naI95\naI96\naI98\naI100\naI101\naI103\naI105\naI107\naI108\naI110\naI112\naI113\naI115\naI117\naI119\naI120\naI122\naI124\naI125\naI127\naI129\naI131\naI132\nasS'size'\np10\nI15\nsb."
p296
sg27
S'I16\n.'
p297
sg29
S'I10\n.'
p298
sg22
S'(lp1\nI9\naI12\naI9\naI6\naI4\naI3\naI8\naI11\naI11\naI2\naI9\naI6\naI6\naI6\naI5\naI11\naI7\naI12\naI5\naI4\naI11\naI12\naI5\naI8\naI7\naI8\naI9\naI11\naI6\naI11\naI8\naI4\na.'
p299
sg24
S'(lp1\nI6\naI6\naI6\naI6\naI6\naI6\naI6\naI6\naI6\naI6\naI6\naI6\naI6\naI6\naI6\naI6\naI6\naI6\naI6\naI6\naI6\naI6\naI6\naI6\naI6\naI6\naI6\naI6\naI6\naI6\naI6\naI6\na.'
p300
sa(dp301
g37
S'(lp1\nI60\naI57\naI73\naI72\naI73\naI79\naI51\naI76\naI46\naI70\naI49\naI59\naI71\naI72\naI57\naI84\naI73\naI47\naI47\naI70\naI63\naI44\naI57\naI69\naI54\naI64\naI77\naI64\naI45\naI74\naI76\naI77\na.'
p302
sg5
S"(iscales\nMidiScale\np1\n(dp2\nS'slave'\np3\n(lp4\nI36\naI37\naI38\naI44\naI45\naI46\naI47\nasS'min'\np5\nI36\nsS'max'\np6\nI60\nsS'transposition'\np7\nI0\nsS'master_scale'\np8\n(lp9\nI36\naI37\naI38\naI44\naI45\naI46\naI47\nasS'size'\np10\nI7\nsb."
p303
sg27
S'I16\n.'
p304
sg29
S'I9\n.'
p305
sg22
S'(lp1\nI0\na.'
p306
sg24
S'(lp1\nI24\na.'
p307
sa(dp308
g37
S'(lp1\nI60\naI57\naI73\naI72\naI73\naI79\naI51\naI76\naI46\naI70\naI49\naI59\naI71\naI72\naI57\naI84\naI73\naI47\naI47\naI70\naI63\naI44\naI57\naI69\naI54\naI64\naI77\naI64\naI45\naI74\naI76\naI77\na.'
p309
sg5
S"(iscales\nMidiScale\np1\n(dp2\nS'slave'\np3\n(lp4\nI36\naI37\naI38\naI44\naI45\naI46\naI47\nasS'min'\np5\nI36\nsS'max'\np6\nI60\nsS'transposition'\np7\nI0\nsS'master_scale'\np8\n(lp9\nI36\naI37\naI38\naI44\naI45\naI46\naI47\nasS'size'\np10\nI7\nsb."
p310
sg27
S'I16\n.'
p311
sg29
S'I9\n.'
p312
sg22
S'(lp1\nI0\na.'
p313
sg24
S'(lp1\nI24\na.'
p314
sa(dp315
g37
S'(lp1\nI60\naI57\naI73\naI72\naI73\naI79\naI51\naI76\naI46\naI70\naI49\naI59\naI71\naI72\naI57\naI84\naI73\naI47\naI47\naI70\naI63\naI44\naI57\naI69\naI54\naI64\naI77\naI64\naI45\naI74\naI76\naI77\na.'
p316
sg5
S"(iscales\nMidiScale\np1\n(dp2\nS'slave'\np3\n(lp4\nI36\naI37\naI38\naI44\naI45\naI46\naI47\nasS'min'\np5\nI36\nsS'max'\np6\nI60\nsS'transposition'\np7\nI0\nsS'master_scale'\np8\n(lp9\nI36\naI37\naI38\naI44\naI45\naI46\naI47\nasS'size'\np10\nI7\nsb."
p317
sg27
S'I16\n.'
p318
sg29
S'I9\n.'
p319
sg22
S'(lp1\nI0\na.'
p320
sg24
S'(lp1\nI24\na.'
p321
sa(dp322
g37
S'(lp1\nI60\naI57\naI73\naI72\naI73\naI79\naI51\naI76\naI46\naI70\naI49\naI59\naI71\naI72\naI57\naI84\naI73\naI47\naI47\naI70\naI63\naI44\naI57\naI69\naI54\naI64\naI77\naI64\naI45\naI74\naI76\naI77\na.'
p323
sg5
S"(iscales\nMidiScale\np1\n(dp2\nS'slave'\np3\n(lp4\nI36\naI37\naI38\naI44\naI45\naI46\naI47\nasS'min'\np5\nI36\nsS'max'\np6\nI60\nsS'transposition'\np7\nI0\nsS'master_scale'\np8\n(lp9\nI36\naI37\naI38\naI44\naI45\naI46\naI47\nasS'size'\np10\nI7\nsb."
p324
sg27
S'I16\n.'
p325
sg29
S'I9\n.'
p326
sg22
S'(lp1\nI0\na.'
p327
sg24
S'(lp1\nI24\na.'
p328
sa(dp329
g37
S'(lp1\nI60\naI57\naI73\naI72\naI73\naI79\naI51\naI76\naI46\naI70\naI49\naI59\naI71\naI72\naI57\naI84\naI73\naI47\naI47\naI70\naI63\naI44\naI57\naI69\naI54\naI64\naI77\naI64\naI45\naI74\naI76\naI77\na.'
p330
sg5
S"(iscales\nMidiScale\np1\n(dp2\nS'slave'\np3\n(lp4\nI36\naI37\naI38\naI44\naI45\naI46\naI47\nasS'min'\np5\nI36\nsS'max'\np6\nI60\nsS'transposition'\np7\nI0\nsS'master_scale'\np8\n(lp9\nI36\naI37\naI38\naI44\naI45\naI46\naI47\nasS'size'\np10\nI7\nsb."
p331
sg27
S'I16\n.'
p332
sg29
S'I9\n.'
p333
sg22
S'(lp1\nI0\na.'
p334
sg24
S'(lp1\nI48\na.'
p335
sa(dp336
g37
S'(lp1\nI60\naI57\naI73\naI72\naI73\naI79\naI51\naI76\naI46\naI70\naI49\naI59\naI71\naI72\naI57\naI84\naI73\naI47\naI47\naI70\naI63\naI44\naI57\naI69\naI54\naI64\naI77\naI64\naI45\naI74\naI76\naI77\na.'
p337
sg5
S"(iscales\nMidiScale\np1\n(dp2\nS'slave'\np3\n(lp4\nI36\naI37\naI38\naI44\naI45\naI46\naI47\nasS'min'\np5\nI36\nsS'max'\np6\nI60\nsS'transposition'\np7\nI0\nsS'master_scale'\np8\n(lp9\nI36\naI37\naI38\naI44\naI45\naI46\naI47\nasS'size'\np10\nI7\nsb."
p338
sg27
S'I16\n.'
p339
sg29
S'I9\n.'
p340
sg22
S'(lp1\nI0\na.'
p341
sg24
S'(lp1\nI24\na.'
p342
sa(dp343
g37
S'(lp1\nI60\naI57\naI73\naI72\naI73\naI79\naI51\naI76\naI46\naI70\naI49\naI59\naI71\naI72\naI57\naI84\naI73\naI47\naI47\naI70\naI63\naI44\naI57\naI69\naI54\naI64\naI77\naI64\naI45\naI74\naI76\naI77\na.'
p344
sg5
S"(iscales\nMidiScale\np1\n(dp2\nS'slave'\np3\n(lp4\nI48\naI50\naI52\naI53\naI55\naI57\naI59\naI60\naI62\naI64\naI65\naI67\naI69\naI71\naI72\nasS'min'\np5\nI48\nsS'max'\np6\nI72\nsS'transposition'\np7\nI0\nsS'master_scale'\np8\n(lp9\nI0\naI2\naI4\naI5\naI7\naI9\naI11\naI12\naI14\naI16\naI17\naI19\naI21\naI23\naI24\naI26\naI28\naI29\naI31\naI33\naI35\naI36\naI38\naI40\naI41\naI43\naI45\naI47\naI48\naI50\naI52\naI53\naI55\naI57\naI59\naI60\naI62\naI64\naI65\naI67\naI69\naI71\naI72\naI74\naI76\naI77\naI79\naI81\naI83\naI84\naI86\naI88\naI89\naI91\naI93\naI95\naI96\naI98\naI100\naI101\naI103\naI105\naI107\naI108\naI110\naI112\naI113\naI115\naI117\naI119\naI120\naI122\naI124\naI125\naI127\naI129\naI131\naI132\nasS'size'\np10\nI15\nsb."
p345
sg27
S'I16\n.'
p346
sg29
S'I10\n.'
p347
sg22
S'(lp1\nI9\naI12\naI9\naI6\naI4\naI3\naI8\naI11\naI11\naI2\naI9\naI6\naI6\naI6\naI5\naI11\naI7\naI12\naI5\naI4\naI11\naI12\naI5\naI8\naI7\naI8\naI9\naI11\naI6\naI11\naI8\naI4\na.'
p348
sg24
S'(lp1\nI6\naI6\naI6\naI6\naI6\naI6\naI6\naI6\naI6\naI6\naI6\naI6\naI6\naI6\naI6\naI6\naI6\naI6\naI6\naI6\naI6\naI6\naI6\naI6\naI6\naI6\naI6\naI6\naI6\naI6\naI6\naI6\na.'
p349
sa(dp350
g37
S'(lp1\nI60\naI57\naI73\naI72\naI73\naI79\naI51\naI76\naI46\naI70\naI49\naI59\naI71\naI72\naI57\naI84\naI73\naI47\naI47\naI70\naI63\naI44\naI57\naI69\naI54\naI64\naI77\naI64\naI45\naI74\naI76\naI77\na.'
p351
sg5
S"(iscales\nMidiScale\np1\n(dp2\nS'slave'\np3\n(lp4\nI48\naI50\naI52\naI53\naI55\naI57\naI59\naI60\naI62\naI64\naI65\naI67\naI69\naI71\naI72\nasS'min'\np5\nI48\nsS'max'\np6\nI72\nsS'transposition'\np7\nI0\nsS'master_scale'\np8\n(lp9\nI0\naI2\naI4\naI5\naI7\naI9\naI11\naI12\naI14\naI16\naI17\naI19\naI21\naI23\naI24\naI26\naI28\naI29\naI31\naI33\naI35\naI36\naI38\naI40\naI41\naI43\naI45\naI47\naI48\naI50\naI52\naI53\naI55\naI57\naI59\naI60\naI62\naI64\naI65\naI67\naI69\naI71\naI72\naI74\naI76\naI77\naI79\naI81\naI83\naI84\naI86\naI88\naI89\naI91\naI93\naI95\naI96\naI98\naI100\naI101\naI103\naI105\naI107\naI108\naI110\naI112\naI113\naI115\naI117\naI119\naI120\naI122\naI124\naI125\naI127\naI129\naI131\naI132\nasS'size'\np10\nI15\nsb."
p352
sg27
S'I16\n.'
p353
sg29
S'I10\n.'
p354
sg22
S'(lp1\nI9\naI12\naI9\naI6\naI4\naI3\naI8\naI11\naI11\naI2\naI9\naI6\naI6\naI6\naI5\naI11\naI7\naI12\naI5\naI4\naI11\naI12\naI5\naI8\naI7\naI8\naI9\naI11\naI6\naI11\naI8\naI4\na.'
p355
sg24
S'(lp1\nI6\naI6\naI6\naI6\naI6\naI6\naI6\naI6\naI6\naI6\naI6\naI6\naI6\naI6\naI6\naI6\naI6\naI6\naI6\naI6\naI6\naI6\naI6\naI6\naI6\naI6\naI6\naI6\naI6\naI6\naI6\naI6\na.'
p356
sa(dp357
g37
S'(lp1\nI60\naI57\naI73\naI72\naI73\naI79\naI51\naI76\naI46\naI70\naI49\naI59\naI71\naI72\naI57\naI84\naI73\naI47\naI47\naI70\naI63\naI44\naI57\naI69\naI54\naI64\naI77\naI64\naI45\naI74\naI76\naI77\na.'
p358
sg5
S"(iscales\nMidiScale\np1\n(dp2\nS'slave'\np3\n(lp4\nI48\naI50\naI52\naI53\naI55\naI57\naI59\naI60\naI62\naI64\naI65\naI67\naI69\naI71\naI72\nasS'min'\np5\nI48\nsS'max'\np6\nI72\nsS'transposition'\np7\nI0\nsS'master_scale'\np8\n(lp9\nI0\naI2\naI4\naI5\naI7\naI9\naI11\naI12\naI14\naI16\naI17\naI19\naI21\naI23\naI24\naI26\naI28\naI29\naI31\naI33\naI35\naI36\naI38\naI40\naI41\naI43\naI45\naI47\naI48\naI50\naI52\naI53\naI55\naI57\naI59\naI60\naI62\naI64\naI65\naI67\naI69\naI71\naI72\naI74\naI76\naI77\naI79\naI81\naI83\naI84\naI86\naI88\naI89\naI91\naI93\naI95\naI96\naI98\naI100\naI101\naI103\naI105\naI107\naI108\naI110\naI112\naI113\naI115\naI117\naI119\naI120\naI122\naI124\naI125\naI127\naI129\naI131\naI132\nasS'size'\np10\nI15\nsb."
p359
sg27
S'I16\n.'
p360
sg29
S'I10\n.'
p361
sg22
S'(lp1\nI9\naI12\naI9\naI6\naI4\naI3\naI8\naI11\naI11\naI2\naI9\naI6\naI6\naI6\naI5\naI11\naI7\naI12\naI5\naI4\naI11\naI12\naI5\naI8\naI7\naI8\naI9\naI11\naI6\naI11\naI8\naI4\na.'
p362
sg24
S'(lp1\nI6\naI6\naI6\naI6\naI6\naI6\naI6\naI6\naI6\naI6\naI6\naI6\naI6\naI6\naI6\naI6\naI6\naI6\naI6\naI6\naI6\naI6\naI6\naI6\naI6\naI6\naI6\naI6\naI6\naI6\naI6\naI6\na.'
p363
sa(dp364
g37
S'(lp1\nI60\naI57\naI73\naI72\naI73\naI79\naI51\naI76\naI46\naI70\naI49\naI59\naI71\naI72\naI57\naI84\naI73\naI47\naI47\naI70\naI63\naI44\naI57\naI69\naI54\naI64\naI77\naI64\naI45\naI74\naI76\naI77\na.'
p365
sg5
S"(iscales\nMidiScale\np1\n(dp2\nS'slave'\np3\n(lp4\nI48\naI50\naI52\naI53\naI55\naI57\naI59\naI60\naI62\naI64\naI65\naI67\naI69\naI71\naI72\nasS'min'\np5\nI48\nsS'max'\np6\nI72\nsS'transposition'\np7\nI0\nsS'master_scale'\np8\n(lp9\nI0\naI2\naI4\naI5\naI7\naI9\naI11\naI12\naI14\naI16\naI17\naI19\naI21\naI23\naI24\naI26\naI28\naI29\naI31\naI33\naI35\naI36\naI38\naI40\naI41\naI43\naI45\naI47\naI48\naI50\naI52\naI53\naI55\naI57\naI59\naI60\naI62\naI64\naI65\naI67\naI69\naI71\naI72\naI74\naI76\naI77\naI79\naI81\naI83\naI84\naI86\naI88\naI89\naI91\naI93\naI95\naI96\naI98\naI100\naI101\naI103\naI105\naI107\naI108\naI110\naI112\naI113\naI115\naI117\naI119\naI120\naI122\naI124\naI125\naI127\naI129\naI131\naI132\nasS'size'\np10\nI15\nsb."
p366
sg27
S'I16\n.'
p367
sg29
S'I10\n.'
p368
sg22
S'(lp1\nI9\naI12\naI9\naI6\naI4\naI3\naI8\naI11\naI11\naI2\naI9\naI6\naI6\naI6\naI5\naI11\naI7\naI12\naI5\naI4\naI11\naI12\naI5\naI8\naI7\naI8\naI9\naI11\naI6\naI11\naI8\naI4\na.'
p369
sg24
S'(lp1\nI6\naI6\naI6\naI6\naI6\naI6\naI6\naI6\naI6\naI6\naI6\naI6\naI6\naI6\naI6\naI6\naI6\naI6\naI6\naI6\naI6\naI6\naI6\naI6\naI6\naI6\naI6\naI6\naI6\naI6\naI6\naI6\na.'
p370
sa(dp371
g37
S'(lp1\nI60\naI57\naI73\naI72\naI73\naI79\naI51\naI76\naI46\naI70\naI49\naI59\naI71\naI72\naI57\naI84\naI73\naI47\naI47\naI70\naI63\naI44\naI57\naI69\naI54\naI64\naI77\naI64\naI45\naI74\naI76\naI77\na.'
p372
sg5
S"(iscales\nMidiScale\np1\n(dp2\nS'slave'\np3\n(lp4\nI48\naI50\naI52\naI53\naI55\naI57\naI59\naI60\naI62\naI64\naI65\naI67\naI69\naI71\naI72\nasS'min'\np5\nI48\nsS'max'\np6\nI72\nsS'transposition'\np7\nI0\nsS'master_scale'\np8\n(lp9\nI0\naI2\naI4\naI5\naI7\naI9\naI11\naI12\naI14\naI16\naI17\naI19\naI21\naI23\naI24\naI26\naI28\naI29\naI31\naI33\naI35\naI36\naI38\naI40\naI41\naI43\naI45\naI47\naI48\naI50\naI52\naI53\naI55\naI57\naI59\naI60\naI62\naI64\naI65\naI67\naI69\naI71\naI72\naI74\naI76\naI77\naI79\naI81\naI83\naI84\naI86\naI88\naI89\naI91\naI93\naI95\naI96\naI98\naI100\naI101\naI103\naI105\naI107\naI108\naI110\naI112\naI113\naI115\naI117\naI119\naI120\naI122\naI124\naI125\naI127\naI129\naI131\naI132\nasS'size'\np10\nI15\nsb."
p373
sg27
S'I16\n.'
p374
sg29
S'I10\n.'
p375
sg22
S'(lp1\nI9\naI12\naI9\naI6\naI4\naI3\naI8\naI11\naI11\naI2\naI9\naI6\naI6\naI6\naI5\naI11\naI7\naI12\naI5\naI4\naI11\naI12\naI5\naI8\naI7\naI8\naI9\naI11\naI6\naI11\naI8\naI4\na.'
p376
sg24
S'(lp1\nI6\naI6\naI6\naI6\naI6\naI6\naI6\naI6\naI6\naI6\naI6\naI6\naI6\naI6\naI6\naI6\naI6\naI6\naI6\naI6\naI6\naI6\naI6\naI6\naI6\naI6\naI6\naI6\naI6\naI6\naI6\naI6\na.'
p377
sa(dp378
g37
S'(lp1\nI60\naI57\naI73\naI72\naI73\naI79\naI51\naI76\naI46\naI70\naI49\naI59\naI71\naI72\naI57\naI84\naI73\naI47\naI47\naI70\naI63\naI44\naI57\naI69\naI54\naI64\naI77\naI64\naI45\naI74\naI76\naI77\na.'
p379
sg5
S"(iscales\nMidiScale\np1\n(dp2\nS'slave'\np3\n(lp4\nI48\naI50\naI52\naI53\naI55\naI57\naI59\naI60\naI62\naI64\naI65\naI67\naI69\naI71\naI72\nasS'min'\np5\nI48\nsS'max'\np6\nI72\nsS'transposition'\np7\nI0\nsS'master_scale'\np8\n(lp9\nI0\naI2\naI4\naI5\naI7\naI9\naI11\naI12\naI14\naI16\naI17\naI19\naI21\naI23\naI24\naI26\naI28\naI29\naI31\naI33\naI35\naI36\naI38\naI40\naI41\naI43\naI45\naI47\naI48\naI50\naI52\naI53\naI55\naI57\naI59\naI60\naI62\naI64\naI65\naI67\naI69\naI71\naI72\naI74\naI76\naI77\naI79\naI81\naI83\naI84\naI86\naI88\naI89\naI91\naI93\naI95\naI96\naI98\naI100\naI101\naI103\naI105\naI107\naI108\naI110\naI112\naI113\naI115\naI117\naI119\naI120\naI122\naI124\naI125\naI127\naI129\naI131\naI132\nasS'size'\np10\nI15\nsb."
p380
sg27
S'I16\n.'
p381
sg29
S'I10\n.'
p382
sg22
S'(lp1\nI9\naI12\naI9\naI6\naI4\naI3\naI8\naI11\naI11\naI2\naI9\naI6\naI6\naI6\naI5\naI11\naI7\naI12\naI5\naI4\naI11\naI12\naI5\naI8\naI7\naI8\naI9\naI11\naI6\naI11\naI8\naI4\na.'
p383
sg24
S'(lp1\nI6\naI6\naI6\naI6\naI6\naI6\naI6\naI6\naI6\naI6\naI6\naI6\naI6\naI6\naI6\naI6\naI6\naI6\naI6\naI6\naI6\naI6\naI6\naI6\naI6\naI6\naI6\naI6\naI6\naI6\naI6\naI6\na.'
p384
sa(dp385
g37
S'(lp1\nI60\naI57\naI73\naI72\naI73\naI79\naI51\naI76\naI46\naI70\naI49\naI59\naI71\naI72\naI57\naI84\naI73\naI47\naI47\naI70\naI63\naI44\naI57\naI69\naI54\naI64\naI77\naI64\naI45\naI74\naI76\naI77\na.'
p386
sg5
S"(iscales\nMidiScale\np1\n(dp2\nS'slave'\np3\n(lp4\nI48\naI50\naI52\naI53\naI55\naI57\naI59\naI60\naI62\naI64\naI65\naI67\naI69\naI71\naI72\nasS'min'\np5\nI48\nsS'max'\np6\nI72\nsS'transposition'\np7\nI0\nsS'master_scale'\np8\n(lp9\nI0\naI2\naI4\naI5\naI7\naI9\naI11\naI12\naI14\naI16\naI17\naI19\naI21\naI23\naI24\naI26\naI28\naI29\naI31\naI33\naI35\naI36\naI38\naI40\naI41\naI43\naI45\naI47\naI48\naI50\naI52\naI53\naI55\naI57\naI59\naI60\naI62\naI64\naI65\naI67\naI69\naI71\naI72\naI74\naI76\naI77\naI79\naI81\naI83\naI84\naI86\naI88\naI89\naI91\naI93\naI95\naI96\naI98\naI100\naI101\naI103\naI105\naI107\naI108\naI110\naI112\naI113\naI115\naI117\naI119\naI120\naI122\naI124\naI125\naI127\naI129\naI131\naI132\nasS'size'\np10\nI15\nsb."
p387
sg27
S'I16\n.'
p388
sg29
S'I10\n.'
p389
sg22
S'(lp1\nI9\naI12\naI9\naI6\naI4\naI3\naI8\naI11\naI11\naI2\naI9\naI6\naI6\naI6\naI5\naI11\naI7\naI12\naI5\naI4\naI11\naI12\naI5\naI8\naI7\naI8\naI9\naI11\naI6\naI11\naI8\naI4\na.'
p390
sg24
S'(lp1\nI6\naI6\naI6\naI6\naI6\naI6\naI6\naI6\naI6\naI6\naI6\naI6\naI6\naI6\naI6\naI6\naI6\naI6\naI6\naI6\naI6\naI6\naI6\naI6\naI6\naI6\naI6\naI6\naI6\naI6\naI6\naI6\na.'
p391
sa(dp392
g37
S'(lp1\nI60\naI57\naI73\naI72\naI73\naI79\naI51\naI76\naI46\naI70\naI49\naI59\naI71\naI72\naI57\naI84\naI73\naI47\naI47\naI70\naI63\naI44\naI57\naI69\naI54\naI64\naI77\naI64\naI45\naI74\naI76\naI77\na.'
p393
sg5
S"(iscales\nMidiScale\np1\n(dp2\nS'slave'\np3\n(lp4\nI48\naI50\naI52\naI53\naI55\naI57\naI59\naI60\naI62\naI64\naI65\naI67\naI69\naI71\naI72\nasS'min'\np5\nI48\nsS'max'\np6\nI72\nsS'transposition'\np7\nI0\nsS'master_scale'\np8\n(lp9\nI0\naI2\naI4\naI5\naI7\naI9\naI11\naI12\naI14\naI16\naI17\naI19\naI21\naI23\naI24\naI26\naI28\naI29\naI31\naI33\naI35\naI36\naI38\naI40\naI41\naI43\naI45\naI47\naI48\naI50\naI52\naI53\naI55\naI57\naI59\naI60\naI62\naI64\naI65\naI67\naI69\naI71\naI72\naI74\naI76\naI77\naI79\naI81\naI83\naI84\naI86\naI88\naI89\naI91\naI93\naI95\naI96\naI98\naI100\naI101\naI103\naI105\naI107\naI108\naI110\naI112\naI113\naI115\naI117\naI119\naI120\naI122\naI124\naI125\naI127\naI129\naI131\naI132\nasS'size'\np10\nI15\nsb."
p394
sg27
S'I16\n.'
p395
sg29
S'I10\n.'
p396
sg22
S'(lp1\nI9\naI12\naI9\naI6\naI4\naI3\naI8\naI11\naI11\naI2\naI9\naI6\naI6\naI6\naI5\naI11\naI7\naI12\naI5\naI4\naI11\naI12\naI5\naI8\naI7\naI8\naI9\naI11\naI6\naI11\naI8\naI4\na.'
p397
sg24
S'(lp1\nI6\naI6\naI6\naI6\naI6\naI6\naI6\naI6\naI6\naI6\naI6\naI6\naI6\naI6\naI6\naI6\naI6\naI6\naI6\naI6\naI6\naI6\naI6\naI6\naI6\naI6\naI6\naI6\naI6\naI6\naI6\naI6\na.'
p398
sa(dp399
g37
S'(lp1\nI60\naI57\naI73\naI72\naI73\naI79\naI51\naI76\naI46\naI70\naI49\naI59\naI71\naI72\naI57\naI84\naI73\naI47\naI47\naI70\naI63\naI44\naI57\naI69\naI54\naI64\naI77\naI64\naI45\naI74\naI76\naI77\na.'
p400
sg5
S"(iscales\nMidiScale\np1\n(dp2\nS'slave'\np3\n(lp4\nI48\naI50\naI52\naI53\naI55\naI57\naI59\naI60\naI62\naI64\naI65\naI67\naI69\naI71\naI72\nasS'min'\np5\nI48\nsS'max'\np6\nI72\nsS'transposition'\np7\nI0\nsS'master_scale'\np8\n(lp9\nI0\naI2\naI4\naI5\naI7\naI9\naI11\naI12\naI14\naI16\naI17\naI19\naI21\naI23\naI24\naI26\naI28\naI29\naI31\naI33\naI35\naI36\naI38\naI40\naI41\naI43\naI45\naI47\naI48\naI50\naI52\naI53\naI55\naI57\naI59\naI60\naI62\naI64\naI65\naI67\naI69\naI71\naI72\naI74\naI76\naI77\naI79\naI81\naI83\naI84\naI86\naI88\naI89\naI91\naI93\naI95\naI96\naI98\naI100\naI101\naI103\naI105\naI107\naI108\naI110\naI112\naI113\naI115\naI117\naI119\naI120\naI122\naI124\naI125\naI127\naI129\naI131\naI132\nasS'size'\np10\nI15\nsb."
p401
sg27
S'I16\n.'
p402
sg29
S'I10\n.'
p403
sg22
S'(lp1\nI9\naI12\naI9\naI6\naI4\naI3\naI8\naI11\naI11\naI2\naI9\naI6\naI6\naI6\naI5\naI11\naI7\naI12\naI5\naI4\naI11\naI12\naI5\naI8\naI7\naI8\naI9\naI11\naI6\naI11\naI8\naI4\na.'
p404
sg24
S'(lp1\nI6\naI6\naI6\naI6\naI6\naI6\naI6\naI6\naI6\naI6\naI6\naI6\naI6\naI6\naI6\naI6\naI6\naI6\naI6\naI6\naI6\naI6\naI6\naI6\naI6\naI6\naI6\naI6\naI6\naI6\naI6\naI6\na.'
p405
sasg149
I36
sg150
g151
sg152
I12
sg153
I15
sg154
I20
sg155
I0
sg156
I0
sg37
(lp406
I60
aI57
aI73
aI72
aI73
aI79
aI51
aI76
aI46
aI70
aI49
aI59
aI71
aI72
aI57
aI84
aI73
aI47
aI47
aI70
aI63
aI44
aI57
aI69
aI54
aI64
aI77
aI64
aI45
aI74
aI76
aI77
asg158
g33
sg159
I01
sg160
I0
sg161
I0
sg162
I0
sbs.